ARM GAS  C:\Users\lzh\AppData\Local\Temp\cckGfb7j.s 			page 1


   1              		.cpu cortex-m0plus
   2              		.arch armv6s-m
   3              		.fpu softvfp
   4              		.eabi_attribute 20, 1
   5              		.eabi_attribute 21, 1
   6              		.eabi_attribute 23, 3
   7              		.eabi_attribute 24, 1
   8              		.eabi_attribute 25, 1
   9              		.eabi_attribute 26, 1
  10              		.eabi_attribute 30, 1
  11              		.eabi_attribute 34, 0
  12              		.eabi_attribute 18, 4
  13              		.file	"stm32l0xx_hal_uart_ex.c"
  14              		.text
  15              	.Ltext0:
  16              		.cfi_sections	.debug_frame
  17              		.file 1 "Drivers/STM32L0xx_HAL_Driver/Src/stm32l0xx_hal_uart_ex.c"
  18              		.section	.text.UARTEx_Wakeup_AddressConfig,"ax",%progbits
  19              		.align	1
  20              		.syntax unified
  21              		.code	16
  22              		.thumb_func
  24              	UARTEx_Wakeup_AddressConfig:
  25              	.LVL0:
  26              	.LFB52:
   1:Drivers/STM32L0xx_HAL_Driver/Src/stm32l0xx_hal_uart_ex.c **** /**
   2:Drivers/STM32L0xx_HAL_Driver/Src/stm32l0xx_hal_uart_ex.c ****   ******************************************************************************
   3:Drivers/STM32L0xx_HAL_Driver/Src/stm32l0xx_hal_uart_ex.c ****   * @file    stm32l0xx_hal_uart_ex.c
   4:Drivers/STM32L0xx_HAL_Driver/Src/stm32l0xx_hal_uart_ex.c ****   * @author  MCD Application Team
   5:Drivers/STM32L0xx_HAL_Driver/Src/stm32l0xx_hal_uart_ex.c ****   * @brief   Extended UART HAL module driver.
   6:Drivers/STM32L0xx_HAL_Driver/Src/stm32l0xx_hal_uart_ex.c ****   *          This file provides firmware functions to manage the following extended
   7:Drivers/STM32L0xx_HAL_Driver/Src/stm32l0xx_hal_uart_ex.c ****   *          functionalities of the Universal Asynchronous Receiver Transmitter Peripheral (UART).
   8:Drivers/STM32L0xx_HAL_Driver/Src/stm32l0xx_hal_uart_ex.c ****   *           + Initialization and de-initialization functions
   9:Drivers/STM32L0xx_HAL_Driver/Src/stm32l0xx_hal_uart_ex.c ****   *           + Peripheral Control functions
  10:Drivers/STM32L0xx_HAL_Driver/Src/stm32l0xx_hal_uart_ex.c ****   *
  11:Drivers/STM32L0xx_HAL_Driver/Src/stm32l0xx_hal_uart_ex.c ****   *
  12:Drivers/STM32L0xx_HAL_Driver/Src/stm32l0xx_hal_uart_ex.c ****   ******************************************************************************
  13:Drivers/STM32L0xx_HAL_Driver/Src/stm32l0xx_hal_uart_ex.c ****   * @attention
  14:Drivers/STM32L0xx_HAL_Driver/Src/stm32l0xx_hal_uart_ex.c ****   *
  15:Drivers/STM32L0xx_HAL_Driver/Src/stm32l0xx_hal_uart_ex.c ****   * Copyright (c) 2016 STMicroelectronics.
  16:Drivers/STM32L0xx_HAL_Driver/Src/stm32l0xx_hal_uart_ex.c ****   * All rights reserved.
  17:Drivers/STM32L0xx_HAL_Driver/Src/stm32l0xx_hal_uart_ex.c ****   *
  18:Drivers/STM32L0xx_HAL_Driver/Src/stm32l0xx_hal_uart_ex.c ****   * This software is licensed under terms that can be found in the LICENSE file
  19:Drivers/STM32L0xx_HAL_Driver/Src/stm32l0xx_hal_uart_ex.c ****   * in the root directory of this software component.
  20:Drivers/STM32L0xx_HAL_Driver/Src/stm32l0xx_hal_uart_ex.c ****   * If no LICENSE file comes with this software, it is provided AS-IS.
  21:Drivers/STM32L0xx_HAL_Driver/Src/stm32l0xx_hal_uart_ex.c ****   *
  22:Drivers/STM32L0xx_HAL_Driver/Src/stm32l0xx_hal_uart_ex.c ****   ******************************************************************************
  23:Drivers/STM32L0xx_HAL_Driver/Src/stm32l0xx_hal_uart_ex.c ****   @verbatim
  24:Drivers/STM32L0xx_HAL_Driver/Src/stm32l0xx_hal_uart_ex.c ****   ==============================================================================
  25:Drivers/STM32L0xx_HAL_Driver/Src/stm32l0xx_hal_uart_ex.c ****                ##### UART peripheral extended features  #####
  26:Drivers/STM32L0xx_HAL_Driver/Src/stm32l0xx_hal_uart_ex.c ****   ==============================================================================
  27:Drivers/STM32L0xx_HAL_Driver/Src/stm32l0xx_hal_uart_ex.c ****   [..]
  28:Drivers/STM32L0xx_HAL_Driver/Src/stm32l0xx_hal_uart_ex.c ****     (#) Declare a UART_HandleTypeDef handle structure.
  29:Drivers/STM32L0xx_HAL_Driver/Src/stm32l0xx_hal_uart_ex.c **** 
  30:Drivers/STM32L0xx_HAL_Driver/Src/stm32l0xx_hal_uart_ex.c ****     (#) For the UART RS485 Driver Enable mode, initialize the UART registers
  31:Drivers/STM32L0xx_HAL_Driver/Src/stm32l0xx_hal_uart_ex.c ****         by calling the HAL_RS485Ex_Init() API.
  32:Drivers/STM32L0xx_HAL_Driver/Src/stm32l0xx_hal_uart_ex.c **** 
ARM GAS  C:\Users\lzh\AppData\Local\Temp\cckGfb7j.s 			page 2


  33:Drivers/STM32L0xx_HAL_Driver/Src/stm32l0xx_hal_uart_ex.c ****   @endverbatim
  34:Drivers/STM32L0xx_HAL_Driver/Src/stm32l0xx_hal_uart_ex.c ****   ******************************************************************************
  35:Drivers/STM32L0xx_HAL_Driver/Src/stm32l0xx_hal_uart_ex.c ****   */
  36:Drivers/STM32L0xx_HAL_Driver/Src/stm32l0xx_hal_uart_ex.c **** 
  37:Drivers/STM32L0xx_HAL_Driver/Src/stm32l0xx_hal_uart_ex.c **** /* Includes ------------------------------------------------------------------*/
  38:Drivers/STM32L0xx_HAL_Driver/Src/stm32l0xx_hal_uart_ex.c **** #include "stm32l0xx_hal.h"
  39:Drivers/STM32L0xx_HAL_Driver/Src/stm32l0xx_hal_uart_ex.c **** 
  40:Drivers/STM32L0xx_HAL_Driver/Src/stm32l0xx_hal_uart_ex.c **** /** @addtogroup STM32L0xx_HAL_Driver
  41:Drivers/STM32L0xx_HAL_Driver/Src/stm32l0xx_hal_uart_ex.c ****   * @{
  42:Drivers/STM32L0xx_HAL_Driver/Src/stm32l0xx_hal_uart_ex.c ****   */
  43:Drivers/STM32L0xx_HAL_Driver/Src/stm32l0xx_hal_uart_ex.c **** 
  44:Drivers/STM32L0xx_HAL_Driver/Src/stm32l0xx_hal_uart_ex.c **** /** @defgroup UARTEx UARTEx
  45:Drivers/STM32L0xx_HAL_Driver/Src/stm32l0xx_hal_uart_ex.c ****   * @brief UART Extended HAL module driver
  46:Drivers/STM32L0xx_HAL_Driver/Src/stm32l0xx_hal_uart_ex.c ****   * @{
  47:Drivers/STM32L0xx_HAL_Driver/Src/stm32l0xx_hal_uart_ex.c ****   */
  48:Drivers/STM32L0xx_HAL_Driver/Src/stm32l0xx_hal_uart_ex.c **** 
  49:Drivers/STM32L0xx_HAL_Driver/Src/stm32l0xx_hal_uart_ex.c **** #ifdef HAL_UART_MODULE_ENABLED
  50:Drivers/STM32L0xx_HAL_Driver/Src/stm32l0xx_hal_uart_ex.c **** 
  51:Drivers/STM32L0xx_HAL_Driver/Src/stm32l0xx_hal_uart_ex.c **** /* Private typedef -----------------------------------------------------------*/
  52:Drivers/STM32L0xx_HAL_Driver/Src/stm32l0xx_hal_uart_ex.c **** /* Private define ------------------------------------------------------------*/
  53:Drivers/STM32L0xx_HAL_Driver/Src/stm32l0xx_hal_uart_ex.c **** 
  54:Drivers/STM32L0xx_HAL_Driver/Src/stm32l0xx_hal_uart_ex.c **** /* Private macros ------------------------------------------------------------*/
  55:Drivers/STM32L0xx_HAL_Driver/Src/stm32l0xx_hal_uart_ex.c **** /* Private variables ---------------------------------------------------------*/
  56:Drivers/STM32L0xx_HAL_Driver/Src/stm32l0xx_hal_uart_ex.c **** /* Private function prototypes -----------------------------------------------*/
  57:Drivers/STM32L0xx_HAL_Driver/Src/stm32l0xx_hal_uart_ex.c **** /** @defgroup UARTEx_Private_Functions UARTEx Private Functions
  58:Drivers/STM32L0xx_HAL_Driver/Src/stm32l0xx_hal_uart_ex.c ****   * @{
  59:Drivers/STM32L0xx_HAL_Driver/Src/stm32l0xx_hal_uart_ex.c ****   */
  60:Drivers/STM32L0xx_HAL_Driver/Src/stm32l0xx_hal_uart_ex.c **** static void UARTEx_Wakeup_AddressConfig(UART_HandleTypeDef *huart, UART_WakeUpTypeDef WakeUpSelecti
  61:Drivers/STM32L0xx_HAL_Driver/Src/stm32l0xx_hal_uart_ex.c **** /**
  62:Drivers/STM32L0xx_HAL_Driver/Src/stm32l0xx_hal_uart_ex.c ****   * @}
  63:Drivers/STM32L0xx_HAL_Driver/Src/stm32l0xx_hal_uart_ex.c ****   */
  64:Drivers/STM32L0xx_HAL_Driver/Src/stm32l0xx_hal_uart_ex.c **** 
  65:Drivers/STM32L0xx_HAL_Driver/Src/stm32l0xx_hal_uart_ex.c **** /* Exported functions --------------------------------------------------------*/
  66:Drivers/STM32L0xx_HAL_Driver/Src/stm32l0xx_hal_uart_ex.c **** 
  67:Drivers/STM32L0xx_HAL_Driver/Src/stm32l0xx_hal_uart_ex.c **** /** @defgroup UARTEx_Exported_Functions  UARTEx Exported Functions
  68:Drivers/STM32L0xx_HAL_Driver/Src/stm32l0xx_hal_uart_ex.c ****   * @{
  69:Drivers/STM32L0xx_HAL_Driver/Src/stm32l0xx_hal_uart_ex.c ****   */
  70:Drivers/STM32L0xx_HAL_Driver/Src/stm32l0xx_hal_uart_ex.c **** 
  71:Drivers/STM32L0xx_HAL_Driver/Src/stm32l0xx_hal_uart_ex.c **** /** @defgroup UARTEx_Exported_Functions_Group1 Initialization and de-initialization functions
  72:Drivers/STM32L0xx_HAL_Driver/Src/stm32l0xx_hal_uart_ex.c ****   * @brief    Extended Initialization and Configuration Functions
  73:Drivers/STM32L0xx_HAL_Driver/Src/stm32l0xx_hal_uart_ex.c ****   *
  74:Drivers/STM32L0xx_HAL_Driver/Src/stm32l0xx_hal_uart_ex.c **** @verbatim
  75:Drivers/STM32L0xx_HAL_Driver/Src/stm32l0xx_hal_uart_ex.c **** ===============================================================================
  76:Drivers/STM32L0xx_HAL_Driver/Src/stm32l0xx_hal_uart_ex.c ****             ##### Initialization and Configuration functions #####
  77:Drivers/STM32L0xx_HAL_Driver/Src/stm32l0xx_hal_uart_ex.c ****  ===============================================================================
  78:Drivers/STM32L0xx_HAL_Driver/Src/stm32l0xx_hal_uart_ex.c ****     [..]
  79:Drivers/STM32L0xx_HAL_Driver/Src/stm32l0xx_hal_uart_ex.c ****     This subsection provides a set of functions allowing to initialize the USARTx or the UARTy
  80:Drivers/STM32L0xx_HAL_Driver/Src/stm32l0xx_hal_uart_ex.c ****     in asynchronous mode.
  81:Drivers/STM32L0xx_HAL_Driver/Src/stm32l0xx_hal_uart_ex.c ****       (+) For the asynchronous mode the parameters below can be configured:
  82:Drivers/STM32L0xx_HAL_Driver/Src/stm32l0xx_hal_uart_ex.c ****         (++) Baud Rate
  83:Drivers/STM32L0xx_HAL_Driver/Src/stm32l0xx_hal_uart_ex.c ****         (++) Word Length
  84:Drivers/STM32L0xx_HAL_Driver/Src/stm32l0xx_hal_uart_ex.c ****         (++) Stop Bit
  85:Drivers/STM32L0xx_HAL_Driver/Src/stm32l0xx_hal_uart_ex.c ****         (++) Parity: If the parity is enabled, then the MSB bit of the data written
  86:Drivers/STM32L0xx_HAL_Driver/Src/stm32l0xx_hal_uart_ex.c ****              in the data register is transmitted but is changed by the parity bit.
  87:Drivers/STM32L0xx_HAL_Driver/Src/stm32l0xx_hal_uart_ex.c ****         (++) Hardware flow control
  88:Drivers/STM32L0xx_HAL_Driver/Src/stm32l0xx_hal_uart_ex.c ****         (++) Receiver/transmitter modes
  89:Drivers/STM32L0xx_HAL_Driver/Src/stm32l0xx_hal_uart_ex.c ****         (++) Over Sampling Method
ARM GAS  C:\Users\lzh\AppData\Local\Temp\cckGfb7j.s 			page 3


  90:Drivers/STM32L0xx_HAL_Driver/Src/stm32l0xx_hal_uart_ex.c ****         (++) One-Bit Sampling Method
  91:Drivers/STM32L0xx_HAL_Driver/Src/stm32l0xx_hal_uart_ex.c ****       (+) For the asynchronous mode, the following advanced features can be configured as well:
  92:Drivers/STM32L0xx_HAL_Driver/Src/stm32l0xx_hal_uart_ex.c ****         (++) TX and/or RX pin level inversion
  93:Drivers/STM32L0xx_HAL_Driver/Src/stm32l0xx_hal_uart_ex.c ****         (++) data logical level inversion
  94:Drivers/STM32L0xx_HAL_Driver/Src/stm32l0xx_hal_uart_ex.c ****         (++) RX and TX pins swap
  95:Drivers/STM32L0xx_HAL_Driver/Src/stm32l0xx_hal_uart_ex.c ****         (++) RX overrun detection disabling
  96:Drivers/STM32L0xx_HAL_Driver/Src/stm32l0xx_hal_uart_ex.c ****         (++) DMA disabling on RX error
  97:Drivers/STM32L0xx_HAL_Driver/Src/stm32l0xx_hal_uart_ex.c ****         (++) MSB first on communication line
  98:Drivers/STM32L0xx_HAL_Driver/Src/stm32l0xx_hal_uart_ex.c ****         (++) auto Baud rate detection
  99:Drivers/STM32L0xx_HAL_Driver/Src/stm32l0xx_hal_uart_ex.c ****     [..]
 100:Drivers/STM32L0xx_HAL_Driver/Src/stm32l0xx_hal_uart_ex.c ****     The HAL_RS485Ex_Init() API follows the UART RS485 mode configuration
 101:Drivers/STM32L0xx_HAL_Driver/Src/stm32l0xx_hal_uart_ex.c ****      procedures (details for the procedures are available in reference manual).
 102:Drivers/STM32L0xx_HAL_Driver/Src/stm32l0xx_hal_uart_ex.c **** 
 103:Drivers/STM32L0xx_HAL_Driver/Src/stm32l0xx_hal_uart_ex.c **** @endverbatim
 104:Drivers/STM32L0xx_HAL_Driver/Src/stm32l0xx_hal_uart_ex.c **** 
 105:Drivers/STM32L0xx_HAL_Driver/Src/stm32l0xx_hal_uart_ex.c ****   Depending on the frame length defined by the M1 and M0 bits (7-bit,
 106:Drivers/STM32L0xx_HAL_Driver/Src/stm32l0xx_hal_uart_ex.c ****   8-bit or 9-bit), the possible UART formats are listed in the
 107:Drivers/STM32L0xx_HAL_Driver/Src/stm32l0xx_hal_uart_ex.c ****   following table.
 108:Drivers/STM32L0xx_HAL_Driver/Src/stm32l0xx_hal_uart_ex.c **** 
 109:Drivers/STM32L0xx_HAL_Driver/Src/stm32l0xx_hal_uart_ex.c ****     Table 1. UART frame format.
 110:Drivers/STM32L0xx_HAL_Driver/Src/stm32l0xx_hal_uart_ex.c ****     +-----------------------------------------------------------------------+
 111:Drivers/STM32L0xx_HAL_Driver/Src/stm32l0xx_hal_uart_ex.c ****     |  M1 bit |  M0 bit |  PCE bit  |             UART frame                |
 112:Drivers/STM32L0xx_HAL_Driver/Src/stm32l0xx_hal_uart_ex.c ****     |---------|---------|-----------|---------------------------------------|
 113:Drivers/STM32L0xx_HAL_Driver/Src/stm32l0xx_hal_uart_ex.c ****     |    0    |    0    |    0      |    | SB |    8 bit data   | STB |     |
 114:Drivers/STM32L0xx_HAL_Driver/Src/stm32l0xx_hal_uart_ex.c ****     |---------|---------|-----------|---------------------------------------|
 115:Drivers/STM32L0xx_HAL_Driver/Src/stm32l0xx_hal_uart_ex.c ****     |    0    |    0    |    1      |    | SB | 7 bit data | PB | STB |     |
 116:Drivers/STM32L0xx_HAL_Driver/Src/stm32l0xx_hal_uart_ex.c ****     |---------|---------|-----------|---------------------------------------|
 117:Drivers/STM32L0xx_HAL_Driver/Src/stm32l0xx_hal_uart_ex.c ****     |    0    |    1    |    0      |    | SB |    9 bit data   | STB |     |
 118:Drivers/STM32L0xx_HAL_Driver/Src/stm32l0xx_hal_uart_ex.c ****     |---------|---------|-----------|---------------------------------------|
 119:Drivers/STM32L0xx_HAL_Driver/Src/stm32l0xx_hal_uart_ex.c ****     |    0    |    1    |    1      |    | SB | 8 bit data | PB | STB |     |
 120:Drivers/STM32L0xx_HAL_Driver/Src/stm32l0xx_hal_uart_ex.c ****     |---------|---------|-----------|---------------------------------------|
 121:Drivers/STM32L0xx_HAL_Driver/Src/stm32l0xx_hal_uart_ex.c ****     |    1    |    0    |    0      |    | SB |    7 bit data   | STB |     |
 122:Drivers/STM32L0xx_HAL_Driver/Src/stm32l0xx_hal_uart_ex.c ****     |---------|---------|-----------|---------------------------------------|
 123:Drivers/STM32L0xx_HAL_Driver/Src/stm32l0xx_hal_uart_ex.c ****     |    1    |    0    |    1      |    | SB | 6 bit data | PB | STB |     |
 124:Drivers/STM32L0xx_HAL_Driver/Src/stm32l0xx_hal_uart_ex.c ****     +-----------------------------------------------------------------------+
 125:Drivers/STM32L0xx_HAL_Driver/Src/stm32l0xx_hal_uart_ex.c **** 
 126:Drivers/STM32L0xx_HAL_Driver/Src/stm32l0xx_hal_uart_ex.c ****   * @{
 127:Drivers/STM32L0xx_HAL_Driver/Src/stm32l0xx_hal_uart_ex.c ****   */
 128:Drivers/STM32L0xx_HAL_Driver/Src/stm32l0xx_hal_uart_ex.c **** 
 129:Drivers/STM32L0xx_HAL_Driver/Src/stm32l0xx_hal_uart_ex.c **** /**
 130:Drivers/STM32L0xx_HAL_Driver/Src/stm32l0xx_hal_uart_ex.c ****   * @brief Initialize the RS485 Driver enable feature according to the specified
 131:Drivers/STM32L0xx_HAL_Driver/Src/stm32l0xx_hal_uart_ex.c ****   *         parameters in the UART_InitTypeDef and creates the associated handle.
 132:Drivers/STM32L0xx_HAL_Driver/Src/stm32l0xx_hal_uart_ex.c ****   * @param huart            UART handle.
 133:Drivers/STM32L0xx_HAL_Driver/Src/stm32l0xx_hal_uart_ex.c ****   * @param Polarity         Select the driver enable polarity.
 134:Drivers/STM32L0xx_HAL_Driver/Src/stm32l0xx_hal_uart_ex.c ****   *          This parameter can be one of the following values:
 135:Drivers/STM32L0xx_HAL_Driver/Src/stm32l0xx_hal_uart_ex.c ****   *          @arg @ref UART_DE_POLARITY_HIGH DE signal is active high
 136:Drivers/STM32L0xx_HAL_Driver/Src/stm32l0xx_hal_uart_ex.c ****   *          @arg @ref UART_DE_POLARITY_LOW  DE signal is active low
 137:Drivers/STM32L0xx_HAL_Driver/Src/stm32l0xx_hal_uart_ex.c ****   * @param AssertionTime    Driver Enable assertion time:
 138:Drivers/STM32L0xx_HAL_Driver/Src/stm32l0xx_hal_uart_ex.c ****   *       5-bit value defining the time between the activation of the DE (Driver Enable)
 139:Drivers/STM32L0xx_HAL_Driver/Src/stm32l0xx_hal_uart_ex.c ****   *       signal and the beginning of the start bit. It is expressed in sample time
 140:Drivers/STM32L0xx_HAL_Driver/Src/stm32l0xx_hal_uart_ex.c ****   *       units (1/8 or 1/16 bit time, depending on the oversampling rate)
 141:Drivers/STM32L0xx_HAL_Driver/Src/stm32l0xx_hal_uart_ex.c ****   * @param DeassertionTime  Driver Enable deassertion time:
 142:Drivers/STM32L0xx_HAL_Driver/Src/stm32l0xx_hal_uart_ex.c ****   *       5-bit value defining the time between the end of the last stop bit, in a
 143:Drivers/STM32L0xx_HAL_Driver/Src/stm32l0xx_hal_uart_ex.c ****   *       transmitted message, and the de-activation of the DE (Driver Enable) signal.
 144:Drivers/STM32L0xx_HAL_Driver/Src/stm32l0xx_hal_uart_ex.c ****   *       It is expressed in sample time units (1/8 or 1/16 bit time, depending on the
 145:Drivers/STM32L0xx_HAL_Driver/Src/stm32l0xx_hal_uart_ex.c ****   *       oversampling rate).
 146:Drivers/STM32L0xx_HAL_Driver/Src/stm32l0xx_hal_uart_ex.c ****   * @retval HAL status
ARM GAS  C:\Users\lzh\AppData\Local\Temp\cckGfb7j.s 			page 4


 147:Drivers/STM32L0xx_HAL_Driver/Src/stm32l0xx_hal_uart_ex.c ****   */
 148:Drivers/STM32L0xx_HAL_Driver/Src/stm32l0xx_hal_uart_ex.c **** HAL_StatusTypeDef HAL_RS485Ex_Init(UART_HandleTypeDef *huart, uint32_t Polarity, uint32_t Assertion
 149:Drivers/STM32L0xx_HAL_Driver/Src/stm32l0xx_hal_uart_ex.c ****                                    uint32_t DeassertionTime)
 150:Drivers/STM32L0xx_HAL_Driver/Src/stm32l0xx_hal_uart_ex.c **** {
 151:Drivers/STM32L0xx_HAL_Driver/Src/stm32l0xx_hal_uart_ex.c ****   uint32_t temp;
 152:Drivers/STM32L0xx_HAL_Driver/Src/stm32l0xx_hal_uart_ex.c **** 
 153:Drivers/STM32L0xx_HAL_Driver/Src/stm32l0xx_hal_uart_ex.c ****   /* Check the UART handle allocation */
 154:Drivers/STM32L0xx_HAL_Driver/Src/stm32l0xx_hal_uart_ex.c ****   if (huart == NULL)
 155:Drivers/STM32L0xx_HAL_Driver/Src/stm32l0xx_hal_uart_ex.c ****   {
 156:Drivers/STM32L0xx_HAL_Driver/Src/stm32l0xx_hal_uart_ex.c ****     return HAL_ERROR;
 157:Drivers/STM32L0xx_HAL_Driver/Src/stm32l0xx_hal_uart_ex.c ****   }
 158:Drivers/STM32L0xx_HAL_Driver/Src/stm32l0xx_hal_uart_ex.c ****   /* Check the Driver Enable UART instance */
 159:Drivers/STM32L0xx_HAL_Driver/Src/stm32l0xx_hal_uart_ex.c ****   assert_param(IS_UART_DRIVER_ENABLE_INSTANCE(huart->Instance));
 160:Drivers/STM32L0xx_HAL_Driver/Src/stm32l0xx_hal_uart_ex.c **** 
 161:Drivers/STM32L0xx_HAL_Driver/Src/stm32l0xx_hal_uart_ex.c ****   /* Check the Driver Enable polarity */
 162:Drivers/STM32L0xx_HAL_Driver/Src/stm32l0xx_hal_uart_ex.c ****   assert_param(IS_UART_DE_POLARITY(Polarity));
 163:Drivers/STM32L0xx_HAL_Driver/Src/stm32l0xx_hal_uart_ex.c **** 
 164:Drivers/STM32L0xx_HAL_Driver/Src/stm32l0xx_hal_uart_ex.c ****   /* Check the Driver Enable assertion time */
 165:Drivers/STM32L0xx_HAL_Driver/Src/stm32l0xx_hal_uart_ex.c ****   assert_param(IS_UART_ASSERTIONTIME(AssertionTime));
 166:Drivers/STM32L0xx_HAL_Driver/Src/stm32l0xx_hal_uart_ex.c **** 
 167:Drivers/STM32L0xx_HAL_Driver/Src/stm32l0xx_hal_uart_ex.c ****   /* Check the Driver Enable deassertion time */
 168:Drivers/STM32L0xx_HAL_Driver/Src/stm32l0xx_hal_uart_ex.c ****   assert_param(IS_UART_DEASSERTIONTIME(DeassertionTime));
 169:Drivers/STM32L0xx_HAL_Driver/Src/stm32l0xx_hal_uart_ex.c **** 
 170:Drivers/STM32L0xx_HAL_Driver/Src/stm32l0xx_hal_uart_ex.c ****   if (huart->gState == HAL_UART_STATE_RESET)
 171:Drivers/STM32L0xx_HAL_Driver/Src/stm32l0xx_hal_uart_ex.c ****   {
 172:Drivers/STM32L0xx_HAL_Driver/Src/stm32l0xx_hal_uart_ex.c ****     /* Allocate lock resource and initialize it */
 173:Drivers/STM32L0xx_HAL_Driver/Src/stm32l0xx_hal_uart_ex.c ****     huart->Lock = HAL_UNLOCKED;
 174:Drivers/STM32L0xx_HAL_Driver/Src/stm32l0xx_hal_uart_ex.c **** 
 175:Drivers/STM32L0xx_HAL_Driver/Src/stm32l0xx_hal_uart_ex.c **** #if (USE_HAL_UART_REGISTER_CALLBACKS == 1)
 176:Drivers/STM32L0xx_HAL_Driver/Src/stm32l0xx_hal_uart_ex.c ****     UART_InitCallbacksToDefault(huart);
 177:Drivers/STM32L0xx_HAL_Driver/Src/stm32l0xx_hal_uart_ex.c **** 
 178:Drivers/STM32L0xx_HAL_Driver/Src/stm32l0xx_hal_uart_ex.c ****     if (huart->MspInitCallback == NULL)
 179:Drivers/STM32L0xx_HAL_Driver/Src/stm32l0xx_hal_uart_ex.c ****     {
 180:Drivers/STM32L0xx_HAL_Driver/Src/stm32l0xx_hal_uart_ex.c ****       huart->MspInitCallback = HAL_UART_MspInit;
 181:Drivers/STM32L0xx_HAL_Driver/Src/stm32l0xx_hal_uart_ex.c ****     }
 182:Drivers/STM32L0xx_HAL_Driver/Src/stm32l0xx_hal_uart_ex.c **** 
 183:Drivers/STM32L0xx_HAL_Driver/Src/stm32l0xx_hal_uart_ex.c ****     /* Init the low level hardware */
 184:Drivers/STM32L0xx_HAL_Driver/Src/stm32l0xx_hal_uart_ex.c ****     huart->MspInitCallback(huart);
 185:Drivers/STM32L0xx_HAL_Driver/Src/stm32l0xx_hal_uart_ex.c **** #else
 186:Drivers/STM32L0xx_HAL_Driver/Src/stm32l0xx_hal_uart_ex.c ****     /* Init the low level hardware : GPIO, CLOCK, CORTEX */
 187:Drivers/STM32L0xx_HAL_Driver/Src/stm32l0xx_hal_uart_ex.c ****     HAL_UART_MspInit(huart);
 188:Drivers/STM32L0xx_HAL_Driver/Src/stm32l0xx_hal_uart_ex.c **** #endif /* (USE_HAL_UART_REGISTER_CALLBACKS) */
 189:Drivers/STM32L0xx_HAL_Driver/Src/stm32l0xx_hal_uart_ex.c ****   }
 190:Drivers/STM32L0xx_HAL_Driver/Src/stm32l0xx_hal_uart_ex.c **** 
 191:Drivers/STM32L0xx_HAL_Driver/Src/stm32l0xx_hal_uart_ex.c ****   huart->gState = HAL_UART_STATE_BUSY;
 192:Drivers/STM32L0xx_HAL_Driver/Src/stm32l0xx_hal_uart_ex.c **** 
 193:Drivers/STM32L0xx_HAL_Driver/Src/stm32l0xx_hal_uart_ex.c ****   /* Disable the Peripheral */
 194:Drivers/STM32L0xx_HAL_Driver/Src/stm32l0xx_hal_uart_ex.c ****   __HAL_UART_DISABLE(huart);
 195:Drivers/STM32L0xx_HAL_Driver/Src/stm32l0xx_hal_uart_ex.c **** 
 196:Drivers/STM32L0xx_HAL_Driver/Src/stm32l0xx_hal_uart_ex.c ****   /* Perform advanced settings configuration */
 197:Drivers/STM32L0xx_HAL_Driver/Src/stm32l0xx_hal_uart_ex.c ****   /* For some items, configuration requires to be done prior TE and RE bits are set */
 198:Drivers/STM32L0xx_HAL_Driver/Src/stm32l0xx_hal_uart_ex.c ****   if (huart->AdvancedInit.AdvFeatureInit != UART_ADVFEATURE_NO_INIT)
 199:Drivers/STM32L0xx_HAL_Driver/Src/stm32l0xx_hal_uart_ex.c ****   {
 200:Drivers/STM32L0xx_HAL_Driver/Src/stm32l0xx_hal_uart_ex.c ****     UART_AdvFeatureConfig(huart);
 201:Drivers/STM32L0xx_HAL_Driver/Src/stm32l0xx_hal_uart_ex.c ****   }
 202:Drivers/STM32L0xx_HAL_Driver/Src/stm32l0xx_hal_uart_ex.c **** 
 203:Drivers/STM32L0xx_HAL_Driver/Src/stm32l0xx_hal_uart_ex.c ****   /* Set the UART Communication parameters */
ARM GAS  C:\Users\lzh\AppData\Local\Temp\cckGfb7j.s 			page 5


 204:Drivers/STM32L0xx_HAL_Driver/Src/stm32l0xx_hal_uart_ex.c ****   if (UART_SetConfig(huart) == HAL_ERROR)
 205:Drivers/STM32L0xx_HAL_Driver/Src/stm32l0xx_hal_uart_ex.c ****   {
 206:Drivers/STM32L0xx_HAL_Driver/Src/stm32l0xx_hal_uart_ex.c ****     return HAL_ERROR;
 207:Drivers/STM32L0xx_HAL_Driver/Src/stm32l0xx_hal_uart_ex.c ****   }
 208:Drivers/STM32L0xx_HAL_Driver/Src/stm32l0xx_hal_uart_ex.c **** 
 209:Drivers/STM32L0xx_HAL_Driver/Src/stm32l0xx_hal_uart_ex.c ****   /* Enable the Driver Enable mode by setting the DEM bit in the CR3 register */
 210:Drivers/STM32L0xx_HAL_Driver/Src/stm32l0xx_hal_uart_ex.c ****   SET_BIT(huart->Instance->CR3, USART_CR3_DEM);
 211:Drivers/STM32L0xx_HAL_Driver/Src/stm32l0xx_hal_uart_ex.c **** 
 212:Drivers/STM32L0xx_HAL_Driver/Src/stm32l0xx_hal_uart_ex.c ****   /* Set the Driver Enable polarity */
 213:Drivers/STM32L0xx_HAL_Driver/Src/stm32l0xx_hal_uart_ex.c ****   MODIFY_REG(huart->Instance->CR3, USART_CR3_DEP, Polarity);
 214:Drivers/STM32L0xx_HAL_Driver/Src/stm32l0xx_hal_uart_ex.c **** 
 215:Drivers/STM32L0xx_HAL_Driver/Src/stm32l0xx_hal_uart_ex.c ****   /* Set the Driver Enable assertion and deassertion times */
 216:Drivers/STM32L0xx_HAL_Driver/Src/stm32l0xx_hal_uart_ex.c ****   temp = (AssertionTime << UART_CR1_DEAT_ADDRESS_LSB_POS);
 217:Drivers/STM32L0xx_HAL_Driver/Src/stm32l0xx_hal_uart_ex.c ****   temp |= (DeassertionTime << UART_CR1_DEDT_ADDRESS_LSB_POS);
 218:Drivers/STM32L0xx_HAL_Driver/Src/stm32l0xx_hal_uart_ex.c ****   MODIFY_REG(huart->Instance->CR1, (USART_CR1_DEDT | USART_CR1_DEAT), temp);
 219:Drivers/STM32L0xx_HAL_Driver/Src/stm32l0xx_hal_uart_ex.c **** 
 220:Drivers/STM32L0xx_HAL_Driver/Src/stm32l0xx_hal_uart_ex.c ****   /* Enable the Peripheral */
 221:Drivers/STM32L0xx_HAL_Driver/Src/stm32l0xx_hal_uart_ex.c ****   __HAL_UART_ENABLE(huart);
 222:Drivers/STM32L0xx_HAL_Driver/Src/stm32l0xx_hal_uart_ex.c **** 
 223:Drivers/STM32L0xx_HAL_Driver/Src/stm32l0xx_hal_uart_ex.c ****   /* TEACK and/or REACK to check before moving huart->gState and huart->RxState to Ready */
 224:Drivers/STM32L0xx_HAL_Driver/Src/stm32l0xx_hal_uart_ex.c ****   return (UART_CheckIdleState(huart));
 225:Drivers/STM32L0xx_HAL_Driver/Src/stm32l0xx_hal_uart_ex.c **** }
 226:Drivers/STM32L0xx_HAL_Driver/Src/stm32l0xx_hal_uart_ex.c **** 
 227:Drivers/STM32L0xx_HAL_Driver/Src/stm32l0xx_hal_uart_ex.c **** /**
 228:Drivers/STM32L0xx_HAL_Driver/Src/stm32l0xx_hal_uart_ex.c ****   * @}
 229:Drivers/STM32L0xx_HAL_Driver/Src/stm32l0xx_hal_uart_ex.c ****   */
 230:Drivers/STM32L0xx_HAL_Driver/Src/stm32l0xx_hal_uart_ex.c **** 
 231:Drivers/STM32L0xx_HAL_Driver/Src/stm32l0xx_hal_uart_ex.c **** /** @defgroup UARTEx_Exported_Functions_Group2 IO operation functions
 232:Drivers/STM32L0xx_HAL_Driver/Src/stm32l0xx_hal_uart_ex.c ****   *  @brief Extended functions
 233:Drivers/STM32L0xx_HAL_Driver/Src/stm32l0xx_hal_uart_ex.c ****   *
 234:Drivers/STM32L0xx_HAL_Driver/Src/stm32l0xx_hal_uart_ex.c **** @verbatim
 235:Drivers/STM32L0xx_HAL_Driver/Src/stm32l0xx_hal_uart_ex.c ****  ===============================================================================
 236:Drivers/STM32L0xx_HAL_Driver/Src/stm32l0xx_hal_uart_ex.c ****                       ##### IO operation functions #####
 237:Drivers/STM32L0xx_HAL_Driver/Src/stm32l0xx_hal_uart_ex.c ****  ===============================================================================
 238:Drivers/STM32L0xx_HAL_Driver/Src/stm32l0xx_hal_uart_ex.c ****     [..]
 239:Drivers/STM32L0xx_HAL_Driver/Src/stm32l0xx_hal_uart_ex.c ****     This subsection provides a set of Wakeup and FIFO mode related callback functions.
 240:Drivers/STM32L0xx_HAL_Driver/Src/stm32l0xx_hal_uart_ex.c ****     (#) Wakeup from Stop mode Callback:
 241:Drivers/STM32L0xx_HAL_Driver/Src/stm32l0xx_hal_uart_ex.c ****         (++) HAL_UARTEx_WakeupCallback()
 242:Drivers/STM32L0xx_HAL_Driver/Src/stm32l0xx_hal_uart_ex.c **** @endverbatim
 243:Drivers/STM32L0xx_HAL_Driver/Src/stm32l0xx_hal_uart_ex.c ****   * @{
 244:Drivers/STM32L0xx_HAL_Driver/Src/stm32l0xx_hal_uart_ex.c ****   */
 245:Drivers/STM32L0xx_HAL_Driver/Src/stm32l0xx_hal_uart_ex.c **** 
 246:Drivers/STM32L0xx_HAL_Driver/Src/stm32l0xx_hal_uart_ex.c **** /**
 247:Drivers/STM32L0xx_HAL_Driver/Src/stm32l0xx_hal_uart_ex.c ****   * @brief UART wakeup from Stop mode callback.
 248:Drivers/STM32L0xx_HAL_Driver/Src/stm32l0xx_hal_uart_ex.c ****   * @param huart UART handle.
 249:Drivers/STM32L0xx_HAL_Driver/Src/stm32l0xx_hal_uart_ex.c ****   * @retval None
 250:Drivers/STM32L0xx_HAL_Driver/Src/stm32l0xx_hal_uart_ex.c ****   */
 251:Drivers/STM32L0xx_HAL_Driver/Src/stm32l0xx_hal_uart_ex.c **** __weak void HAL_UARTEx_WakeupCallback(UART_HandleTypeDef *huart)
 252:Drivers/STM32L0xx_HAL_Driver/Src/stm32l0xx_hal_uart_ex.c **** {
 253:Drivers/STM32L0xx_HAL_Driver/Src/stm32l0xx_hal_uart_ex.c ****   /* Prevent unused argument(s) compilation warning */
 254:Drivers/STM32L0xx_HAL_Driver/Src/stm32l0xx_hal_uart_ex.c ****   UNUSED(huart);
 255:Drivers/STM32L0xx_HAL_Driver/Src/stm32l0xx_hal_uart_ex.c **** 
 256:Drivers/STM32L0xx_HAL_Driver/Src/stm32l0xx_hal_uart_ex.c ****   /* NOTE : This function should not be modified, when the callback is needed,
 257:Drivers/STM32L0xx_HAL_Driver/Src/stm32l0xx_hal_uart_ex.c ****             the HAL_UARTEx_WakeupCallback can be implemented in the user file.
 258:Drivers/STM32L0xx_HAL_Driver/Src/stm32l0xx_hal_uart_ex.c ****    */
 259:Drivers/STM32L0xx_HAL_Driver/Src/stm32l0xx_hal_uart_ex.c **** }
 260:Drivers/STM32L0xx_HAL_Driver/Src/stm32l0xx_hal_uart_ex.c **** 
ARM GAS  C:\Users\lzh\AppData\Local\Temp\cckGfb7j.s 			page 6


 261:Drivers/STM32L0xx_HAL_Driver/Src/stm32l0xx_hal_uart_ex.c **** 
 262:Drivers/STM32L0xx_HAL_Driver/Src/stm32l0xx_hal_uart_ex.c **** /**
 263:Drivers/STM32L0xx_HAL_Driver/Src/stm32l0xx_hal_uart_ex.c ****   * @}
 264:Drivers/STM32L0xx_HAL_Driver/Src/stm32l0xx_hal_uart_ex.c ****   */
 265:Drivers/STM32L0xx_HAL_Driver/Src/stm32l0xx_hal_uart_ex.c **** 
 266:Drivers/STM32L0xx_HAL_Driver/Src/stm32l0xx_hal_uart_ex.c **** /** @defgroup UARTEx_Exported_Functions_Group3 Peripheral Control functions
 267:Drivers/STM32L0xx_HAL_Driver/Src/stm32l0xx_hal_uart_ex.c ****   * @brief    Extended Peripheral Control functions
 268:Drivers/STM32L0xx_HAL_Driver/Src/stm32l0xx_hal_uart_ex.c ****   *
 269:Drivers/STM32L0xx_HAL_Driver/Src/stm32l0xx_hal_uart_ex.c **** @verbatim
 270:Drivers/STM32L0xx_HAL_Driver/Src/stm32l0xx_hal_uart_ex.c ****  ===============================================================================
 271:Drivers/STM32L0xx_HAL_Driver/Src/stm32l0xx_hal_uart_ex.c ****                       ##### Peripheral Control functions #####
 272:Drivers/STM32L0xx_HAL_Driver/Src/stm32l0xx_hal_uart_ex.c ****  ===============================================================================
 273:Drivers/STM32L0xx_HAL_Driver/Src/stm32l0xx_hal_uart_ex.c ****     [..] This section provides the following functions:
 274:Drivers/STM32L0xx_HAL_Driver/Src/stm32l0xx_hal_uart_ex.c ****      (+) HAL_UARTEx_EnableClockStopMode() API enables the UART clock (HSI or LSE only) during stop 
 275:Drivers/STM32L0xx_HAL_Driver/Src/stm32l0xx_hal_uart_ex.c ****      (+) HAL_UARTEx_DisableClockStopMode() API disables the above functionality
 276:Drivers/STM32L0xx_HAL_Driver/Src/stm32l0xx_hal_uart_ex.c ****      (+) HAL_MultiProcessorEx_AddressLength_Set() API optionally sets the UART node address
 277:Drivers/STM32L0xx_HAL_Driver/Src/stm32l0xx_hal_uart_ex.c ****          detection length to more than 4 bits for multiprocessor address mark wake up.
 278:Drivers/STM32L0xx_HAL_Driver/Src/stm32l0xx_hal_uart_ex.c ****      (+) HAL_UARTEx_StopModeWakeUpSourceConfig() API defines the wake-up from stop mode
 279:Drivers/STM32L0xx_HAL_Driver/Src/stm32l0xx_hal_uart_ex.c ****          trigger: address match, Start Bit detection or RXNE bit status.
 280:Drivers/STM32L0xx_HAL_Driver/Src/stm32l0xx_hal_uart_ex.c ****      (+) HAL_UARTEx_EnableStopMode() API enables the UART to wake up the MCU from stop mode
 281:Drivers/STM32L0xx_HAL_Driver/Src/stm32l0xx_hal_uart_ex.c ****      (+) HAL_UARTEx_DisableStopMode() API disables the above functionality
 282:Drivers/STM32L0xx_HAL_Driver/Src/stm32l0xx_hal_uart_ex.c **** 
 283:Drivers/STM32L0xx_HAL_Driver/Src/stm32l0xx_hal_uart_ex.c ****     [..] This subsection also provides a set of additional functions providing enhanced reception
 284:Drivers/STM32L0xx_HAL_Driver/Src/stm32l0xx_hal_uart_ex.c ****     services to user. (For example, these functions allow application to handle use cases
 285:Drivers/STM32L0xx_HAL_Driver/Src/stm32l0xx_hal_uart_ex.c ****     where number of data to be received is unknown).
 286:Drivers/STM32L0xx_HAL_Driver/Src/stm32l0xx_hal_uart_ex.c **** 
 287:Drivers/STM32L0xx_HAL_Driver/Src/stm32l0xx_hal_uart_ex.c ****     (#) Compared to standard reception services which only consider number of received
 288:Drivers/STM32L0xx_HAL_Driver/Src/stm32l0xx_hal_uart_ex.c ****         data elements as reception completion criteria, these functions also consider additional ev
 289:Drivers/STM32L0xx_HAL_Driver/Src/stm32l0xx_hal_uart_ex.c ****         as triggers for updating reception status to caller :
 290:Drivers/STM32L0xx_HAL_Driver/Src/stm32l0xx_hal_uart_ex.c ****        (++) Detection of inactivity period (RX line has not been active for a given period).
 291:Drivers/STM32L0xx_HAL_Driver/Src/stm32l0xx_hal_uart_ex.c ****           (+++) RX inactivity detected by IDLE event, i.e. RX line has been in idle state (normally
 292:Drivers/STM32L0xx_HAL_Driver/Src/stm32l0xx_hal_uart_ex.c ****                for 1 frame time, after last received byte.
 293:Drivers/STM32L0xx_HAL_Driver/Src/stm32l0xx_hal_uart_ex.c ****           (+++) RX inactivity detected by RTO, i.e. line has been in idle state
 294:Drivers/STM32L0xx_HAL_Driver/Src/stm32l0xx_hal_uart_ex.c ****                for a programmable time, after last received byte.
 295:Drivers/STM32L0xx_HAL_Driver/Src/stm32l0xx_hal_uart_ex.c ****        (++) Detection that a specific character has been received.
 296:Drivers/STM32L0xx_HAL_Driver/Src/stm32l0xx_hal_uart_ex.c **** 
 297:Drivers/STM32L0xx_HAL_Driver/Src/stm32l0xx_hal_uart_ex.c ****     (#) There are two modes of transfer:
 298:Drivers/STM32L0xx_HAL_Driver/Src/stm32l0xx_hal_uart_ex.c ****        (++) Blocking mode: The reception is performed in polling mode, until either expected number
 299:Drivers/STM32L0xx_HAL_Driver/Src/stm32l0xx_hal_uart_ex.c ****            or till IDLE event occurs. Reception is handled only during function execution.
 300:Drivers/STM32L0xx_HAL_Driver/Src/stm32l0xx_hal_uart_ex.c ****            When function exits, no data reception could occur. HAL status and number of actually re
 301:Drivers/STM32L0xx_HAL_Driver/Src/stm32l0xx_hal_uart_ex.c ****            are returned by function after finishing transfer.
 302:Drivers/STM32L0xx_HAL_Driver/Src/stm32l0xx_hal_uart_ex.c ****        (++) Non-Blocking mode: The reception is performed using Interrupts or DMA.
 303:Drivers/STM32L0xx_HAL_Driver/Src/stm32l0xx_hal_uart_ex.c ****            These API's return the HAL status.
 304:Drivers/STM32L0xx_HAL_Driver/Src/stm32l0xx_hal_uart_ex.c ****            The end of the data processing will be indicated through the
 305:Drivers/STM32L0xx_HAL_Driver/Src/stm32l0xx_hal_uart_ex.c ****            dedicated UART IRQ when using Interrupt mode or the DMA IRQ when using DMA mode.
 306:Drivers/STM32L0xx_HAL_Driver/Src/stm32l0xx_hal_uart_ex.c ****            The HAL_UARTEx_RxEventCallback() user callback will be executed during Receive process
 307:Drivers/STM32L0xx_HAL_Driver/Src/stm32l0xx_hal_uart_ex.c ****            The HAL_UART_ErrorCallback()user callback will be executed when a reception error is det
 308:Drivers/STM32L0xx_HAL_Driver/Src/stm32l0xx_hal_uart_ex.c **** 
 309:Drivers/STM32L0xx_HAL_Driver/Src/stm32l0xx_hal_uart_ex.c ****     (#) Blocking mode API:
 310:Drivers/STM32L0xx_HAL_Driver/Src/stm32l0xx_hal_uart_ex.c ****         (++) HAL_UARTEx_ReceiveToIdle()
 311:Drivers/STM32L0xx_HAL_Driver/Src/stm32l0xx_hal_uart_ex.c **** 
 312:Drivers/STM32L0xx_HAL_Driver/Src/stm32l0xx_hal_uart_ex.c ****     (#) Non-Blocking mode API with Interrupt:
 313:Drivers/STM32L0xx_HAL_Driver/Src/stm32l0xx_hal_uart_ex.c ****         (++) HAL_UARTEx_ReceiveToIdle_IT()
 314:Drivers/STM32L0xx_HAL_Driver/Src/stm32l0xx_hal_uart_ex.c **** 
 315:Drivers/STM32L0xx_HAL_Driver/Src/stm32l0xx_hal_uart_ex.c ****     (#) Non-Blocking mode API with DMA:
 316:Drivers/STM32L0xx_HAL_Driver/Src/stm32l0xx_hal_uart_ex.c ****         (++) HAL_UARTEx_ReceiveToIdle_DMA()
 317:Drivers/STM32L0xx_HAL_Driver/Src/stm32l0xx_hal_uart_ex.c **** 
ARM GAS  C:\Users\lzh\AppData\Local\Temp\cckGfb7j.s 			page 7


 318:Drivers/STM32L0xx_HAL_Driver/Src/stm32l0xx_hal_uart_ex.c **** @endverbatim
 319:Drivers/STM32L0xx_HAL_Driver/Src/stm32l0xx_hal_uart_ex.c ****   * @{
 320:Drivers/STM32L0xx_HAL_Driver/Src/stm32l0xx_hal_uart_ex.c ****   */
 321:Drivers/STM32L0xx_HAL_Driver/Src/stm32l0xx_hal_uart_ex.c **** 
 322:Drivers/STM32L0xx_HAL_Driver/Src/stm32l0xx_hal_uart_ex.c **** /**
 323:Drivers/STM32L0xx_HAL_Driver/Src/stm32l0xx_hal_uart_ex.c ****   * @brief  Keep UART Clock enabled when in Stop Mode.
 324:Drivers/STM32L0xx_HAL_Driver/Src/stm32l0xx_hal_uart_ex.c ****   * @note   When the USART clock source is configured to be LSE or HSI, it is possible to keep enab
 325:Drivers/STM32L0xx_HAL_Driver/Src/stm32l0xx_hal_uart_ex.c ****   *         this clock during STOP mode by setting the UCESM bit in USART_CR3 control register.
 326:Drivers/STM32L0xx_HAL_Driver/Src/stm32l0xx_hal_uart_ex.c ****   * @note   When LPUART is used to wakeup from stop with LSE is selected as LPUART clock source,
 327:Drivers/STM32L0xx_HAL_Driver/Src/stm32l0xx_hal_uart_ex.c ****   *         and desired baud rate is 9600 baud, the bit UCESM bit in LPUART_CR3 control register mu
 328:Drivers/STM32L0xx_HAL_Driver/Src/stm32l0xx_hal_uart_ex.c ****   * @param  huart UART handle.
 329:Drivers/STM32L0xx_HAL_Driver/Src/stm32l0xx_hal_uart_ex.c ****   * @retval HAL status
 330:Drivers/STM32L0xx_HAL_Driver/Src/stm32l0xx_hal_uart_ex.c ****   */
 331:Drivers/STM32L0xx_HAL_Driver/Src/stm32l0xx_hal_uart_ex.c **** HAL_StatusTypeDef HAL_UARTEx_EnableClockStopMode(UART_HandleTypeDef *huart)
 332:Drivers/STM32L0xx_HAL_Driver/Src/stm32l0xx_hal_uart_ex.c **** {
 333:Drivers/STM32L0xx_HAL_Driver/Src/stm32l0xx_hal_uart_ex.c ****   /* Process Locked */
 334:Drivers/STM32L0xx_HAL_Driver/Src/stm32l0xx_hal_uart_ex.c ****   __HAL_LOCK(huart);
 335:Drivers/STM32L0xx_HAL_Driver/Src/stm32l0xx_hal_uart_ex.c **** 
 336:Drivers/STM32L0xx_HAL_Driver/Src/stm32l0xx_hal_uart_ex.c ****   /* Set UCESM bit */
 337:Drivers/STM32L0xx_HAL_Driver/Src/stm32l0xx_hal_uart_ex.c ****   ATOMIC_SET_BIT(huart->Instance->CR3, USART_CR3_UCESM);
 338:Drivers/STM32L0xx_HAL_Driver/Src/stm32l0xx_hal_uart_ex.c **** 
 339:Drivers/STM32L0xx_HAL_Driver/Src/stm32l0xx_hal_uart_ex.c ****   /* Process Unlocked */
 340:Drivers/STM32L0xx_HAL_Driver/Src/stm32l0xx_hal_uart_ex.c ****   __HAL_UNLOCK(huart);
 341:Drivers/STM32L0xx_HAL_Driver/Src/stm32l0xx_hal_uart_ex.c **** 
 342:Drivers/STM32L0xx_HAL_Driver/Src/stm32l0xx_hal_uart_ex.c ****   return HAL_OK;
 343:Drivers/STM32L0xx_HAL_Driver/Src/stm32l0xx_hal_uart_ex.c **** }
 344:Drivers/STM32L0xx_HAL_Driver/Src/stm32l0xx_hal_uart_ex.c **** 
 345:Drivers/STM32L0xx_HAL_Driver/Src/stm32l0xx_hal_uart_ex.c **** /**
 346:Drivers/STM32L0xx_HAL_Driver/Src/stm32l0xx_hal_uart_ex.c ****   * @brief  Disable UART Clock when in Stop Mode.
 347:Drivers/STM32L0xx_HAL_Driver/Src/stm32l0xx_hal_uart_ex.c ****   * @param  huart UART handle.
 348:Drivers/STM32L0xx_HAL_Driver/Src/stm32l0xx_hal_uart_ex.c ****   * @retval HAL status
 349:Drivers/STM32L0xx_HAL_Driver/Src/stm32l0xx_hal_uart_ex.c ****   */
 350:Drivers/STM32L0xx_HAL_Driver/Src/stm32l0xx_hal_uart_ex.c **** HAL_StatusTypeDef HAL_UARTEx_DisableClockStopMode(UART_HandleTypeDef *huart)
 351:Drivers/STM32L0xx_HAL_Driver/Src/stm32l0xx_hal_uart_ex.c **** {
 352:Drivers/STM32L0xx_HAL_Driver/Src/stm32l0xx_hal_uart_ex.c ****   /* Process Locked */
 353:Drivers/STM32L0xx_HAL_Driver/Src/stm32l0xx_hal_uart_ex.c ****   __HAL_LOCK(huart);
 354:Drivers/STM32L0xx_HAL_Driver/Src/stm32l0xx_hal_uart_ex.c **** 
 355:Drivers/STM32L0xx_HAL_Driver/Src/stm32l0xx_hal_uart_ex.c ****   /* Clear UCESM bit */
 356:Drivers/STM32L0xx_HAL_Driver/Src/stm32l0xx_hal_uart_ex.c ****   ATOMIC_CLEAR_BIT(huart->Instance->CR3, USART_CR3_UCESM);
 357:Drivers/STM32L0xx_HAL_Driver/Src/stm32l0xx_hal_uart_ex.c **** 
 358:Drivers/STM32L0xx_HAL_Driver/Src/stm32l0xx_hal_uart_ex.c ****   /* Process Unlocked */
 359:Drivers/STM32L0xx_HAL_Driver/Src/stm32l0xx_hal_uart_ex.c ****   __HAL_UNLOCK(huart);
 360:Drivers/STM32L0xx_HAL_Driver/Src/stm32l0xx_hal_uart_ex.c **** 
 361:Drivers/STM32L0xx_HAL_Driver/Src/stm32l0xx_hal_uart_ex.c ****   return HAL_OK;
 362:Drivers/STM32L0xx_HAL_Driver/Src/stm32l0xx_hal_uart_ex.c **** }
 363:Drivers/STM32L0xx_HAL_Driver/Src/stm32l0xx_hal_uart_ex.c **** 
 364:Drivers/STM32L0xx_HAL_Driver/Src/stm32l0xx_hal_uart_ex.c **** /**
 365:Drivers/STM32L0xx_HAL_Driver/Src/stm32l0xx_hal_uart_ex.c ****   * @brief By default in multiprocessor mode, when the wake up method is set
 366:Drivers/STM32L0xx_HAL_Driver/Src/stm32l0xx_hal_uart_ex.c ****   *        to address mark, the UART handles only 4-bit long addresses detection;
 367:Drivers/STM32L0xx_HAL_Driver/Src/stm32l0xx_hal_uart_ex.c ****   *        this API allows to enable longer addresses detection (6-, 7- or 8-bit
 368:Drivers/STM32L0xx_HAL_Driver/Src/stm32l0xx_hal_uart_ex.c ****   *        long).
 369:Drivers/STM32L0xx_HAL_Driver/Src/stm32l0xx_hal_uart_ex.c ****   * @note  Addresses detection lengths are: 6-bit address detection in 7-bit data mode,
 370:Drivers/STM32L0xx_HAL_Driver/Src/stm32l0xx_hal_uart_ex.c ****   *        7-bit address detection in 8-bit data mode, 8-bit address detection in 9-bit data mode.
 371:Drivers/STM32L0xx_HAL_Driver/Src/stm32l0xx_hal_uart_ex.c ****   * @param huart         UART handle.
 372:Drivers/STM32L0xx_HAL_Driver/Src/stm32l0xx_hal_uart_ex.c ****   * @param AddressLength This parameter can be one of the following values:
 373:Drivers/STM32L0xx_HAL_Driver/Src/stm32l0xx_hal_uart_ex.c ****   *          @arg @ref UART_ADDRESS_DETECT_4B 4-bit long address
 374:Drivers/STM32L0xx_HAL_Driver/Src/stm32l0xx_hal_uart_ex.c ****   *          @arg @ref UART_ADDRESS_DETECT_7B 6-, 7- or 8-bit long address
ARM GAS  C:\Users\lzh\AppData\Local\Temp\cckGfb7j.s 			page 8


 375:Drivers/STM32L0xx_HAL_Driver/Src/stm32l0xx_hal_uart_ex.c ****   * @retval HAL status
 376:Drivers/STM32L0xx_HAL_Driver/Src/stm32l0xx_hal_uart_ex.c ****   */
 377:Drivers/STM32L0xx_HAL_Driver/Src/stm32l0xx_hal_uart_ex.c **** HAL_StatusTypeDef HAL_MultiProcessorEx_AddressLength_Set(UART_HandleTypeDef *huart, uint32_t Addres
 378:Drivers/STM32L0xx_HAL_Driver/Src/stm32l0xx_hal_uart_ex.c **** {
 379:Drivers/STM32L0xx_HAL_Driver/Src/stm32l0xx_hal_uart_ex.c ****   /* Check the UART handle allocation */
 380:Drivers/STM32L0xx_HAL_Driver/Src/stm32l0xx_hal_uart_ex.c ****   if (huart == NULL)
 381:Drivers/STM32L0xx_HAL_Driver/Src/stm32l0xx_hal_uart_ex.c ****   {
 382:Drivers/STM32L0xx_HAL_Driver/Src/stm32l0xx_hal_uart_ex.c ****     return HAL_ERROR;
 383:Drivers/STM32L0xx_HAL_Driver/Src/stm32l0xx_hal_uart_ex.c ****   }
 384:Drivers/STM32L0xx_HAL_Driver/Src/stm32l0xx_hal_uart_ex.c **** 
 385:Drivers/STM32L0xx_HAL_Driver/Src/stm32l0xx_hal_uart_ex.c ****   /* Check the address length parameter */
 386:Drivers/STM32L0xx_HAL_Driver/Src/stm32l0xx_hal_uart_ex.c ****   assert_param(IS_UART_ADDRESSLENGTH_DETECT(AddressLength));
 387:Drivers/STM32L0xx_HAL_Driver/Src/stm32l0xx_hal_uart_ex.c **** 
 388:Drivers/STM32L0xx_HAL_Driver/Src/stm32l0xx_hal_uart_ex.c ****   huart->gState = HAL_UART_STATE_BUSY;
 389:Drivers/STM32L0xx_HAL_Driver/Src/stm32l0xx_hal_uart_ex.c **** 
 390:Drivers/STM32L0xx_HAL_Driver/Src/stm32l0xx_hal_uart_ex.c ****   /* Disable the Peripheral */
 391:Drivers/STM32L0xx_HAL_Driver/Src/stm32l0xx_hal_uart_ex.c ****   __HAL_UART_DISABLE(huart);
 392:Drivers/STM32L0xx_HAL_Driver/Src/stm32l0xx_hal_uart_ex.c **** 
 393:Drivers/STM32L0xx_HAL_Driver/Src/stm32l0xx_hal_uart_ex.c ****   /* Set the address length */
 394:Drivers/STM32L0xx_HAL_Driver/Src/stm32l0xx_hal_uart_ex.c ****   MODIFY_REG(huart->Instance->CR2, USART_CR2_ADDM7, AddressLength);
 395:Drivers/STM32L0xx_HAL_Driver/Src/stm32l0xx_hal_uart_ex.c **** 
 396:Drivers/STM32L0xx_HAL_Driver/Src/stm32l0xx_hal_uart_ex.c ****   /* Enable the Peripheral */
 397:Drivers/STM32L0xx_HAL_Driver/Src/stm32l0xx_hal_uart_ex.c ****   __HAL_UART_ENABLE(huart);
 398:Drivers/STM32L0xx_HAL_Driver/Src/stm32l0xx_hal_uart_ex.c **** 
 399:Drivers/STM32L0xx_HAL_Driver/Src/stm32l0xx_hal_uart_ex.c ****   /* TEACK and/or REACK to check before moving huart->gState to Ready */
 400:Drivers/STM32L0xx_HAL_Driver/Src/stm32l0xx_hal_uart_ex.c ****   return (UART_CheckIdleState(huart));
 401:Drivers/STM32L0xx_HAL_Driver/Src/stm32l0xx_hal_uart_ex.c **** }
 402:Drivers/STM32L0xx_HAL_Driver/Src/stm32l0xx_hal_uart_ex.c **** 
 403:Drivers/STM32L0xx_HAL_Driver/Src/stm32l0xx_hal_uart_ex.c **** /**
 404:Drivers/STM32L0xx_HAL_Driver/Src/stm32l0xx_hal_uart_ex.c ****   * @brief Set Wakeup from Stop mode interrupt flag selection.
 405:Drivers/STM32L0xx_HAL_Driver/Src/stm32l0xx_hal_uart_ex.c ****   * @note It is the application responsibility to enable the interrupt used as
 406:Drivers/STM32L0xx_HAL_Driver/Src/stm32l0xx_hal_uart_ex.c ****   *       usart_wkup interrupt source before entering low-power mode.
 407:Drivers/STM32L0xx_HAL_Driver/Src/stm32l0xx_hal_uart_ex.c ****   * @param huart           UART handle.
 408:Drivers/STM32L0xx_HAL_Driver/Src/stm32l0xx_hal_uart_ex.c ****   * @param WakeUpSelection Address match, Start Bit detection or RXNE/RXFNE bit status.
 409:Drivers/STM32L0xx_HAL_Driver/Src/stm32l0xx_hal_uart_ex.c ****   *          This parameter can be one of the following values:
 410:Drivers/STM32L0xx_HAL_Driver/Src/stm32l0xx_hal_uart_ex.c ****   *          @arg @ref UART_WAKEUP_ON_ADDRESS
 411:Drivers/STM32L0xx_HAL_Driver/Src/stm32l0xx_hal_uart_ex.c ****   *          @arg @ref UART_WAKEUP_ON_STARTBIT
 412:Drivers/STM32L0xx_HAL_Driver/Src/stm32l0xx_hal_uart_ex.c ****   *          @arg @ref UART_WAKEUP_ON_READDATA_NONEMPTY
 413:Drivers/STM32L0xx_HAL_Driver/Src/stm32l0xx_hal_uart_ex.c ****   * @retval HAL status
 414:Drivers/STM32L0xx_HAL_Driver/Src/stm32l0xx_hal_uart_ex.c ****   */
 415:Drivers/STM32L0xx_HAL_Driver/Src/stm32l0xx_hal_uart_ex.c **** HAL_StatusTypeDef HAL_UARTEx_StopModeWakeUpSourceConfig(UART_HandleTypeDef *huart, UART_WakeUpTypeD
 416:Drivers/STM32L0xx_HAL_Driver/Src/stm32l0xx_hal_uart_ex.c **** {
 417:Drivers/STM32L0xx_HAL_Driver/Src/stm32l0xx_hal_uart_ex.c ****   HAL_StatusTypeDef status = HAL_OK;
 418:Drivers/STM32L0xx_HAL_Driver/Src/stm32l0xx_hal_uart_ex.c ****   uint32_t tickstart;
 419:Drivers/STM32L0xx_HAL_Driver/Src/stm32l0xx_hal_uart_ex.c **** 
 420:Drivers/STM32L0xx_HAL_Driver/Src/stm32l0xx_hal_uart_ex.c ****   /* check the wake-up from stop mode UART instance */
 421:Drivers/STM32L0xx_HAL_Driver/Src/stm32l0xx_hal_uart_ex.c ****   assert_param(IS_UART_WAKEUP_FROMSTOP_INSTANCE(huart->Instance));
 422:Drivers/STM32L0xx_HAL_Driver/Src/stm32l0xx_hal_uart_ex.c ****   /* check the wake-up selection parameter */
 423:Drivers/STM32L0xx_HAL_Driver/Src/stm32l0xx_hal_uart_ex.c ****   assert_param(IS_UART_WAKEUP_SELECTION(WakeUpSelection.WakeUpEvent));
 424:Drivers/STM32L0xx_HAL_Driver/Src/stm32l0xx_hal_uart_ex.c **** 
 425:Drivers/STM32L0xx_HAL_Driver/Src/stm32l0xx_hal_uart_ex.c ****   /* Process Locked */
 426:Drivers/STM32L0xx_HAL_Driver/Src/stm32l0xx_hal_uart_ex.c ****   __HAL_LOCK(huart);
 427:Drivers/STM32L0xx_HAL_Driver/Src/stm32l0xx_hal_uart_ex.c **** 
 428:Drivers/STM32L0xx_HAL_Driver/Src/stm32l0xx_hal_uart_ex.c ****   huart->gState = HAL_UART_STATE_BUSY;
 429:Drivers/STM32L0xx_HAL_Driver/Src/stm32l0xx_hal_uart_ex.c **** 
 430:Drivers/STM32L0xx_HAL_Driver/Src/stm32l0xx_hal_uart_ex.c ****   /* Disable the Peripheral */
 431:Drivers/STM32L0xx_HAL_Driver/Src/stm32l0xx_hal_uart_ex.c ****   __HAL_UART_DISABLE(huart);
ARM GAS  C:\Users\lzh\AppData\Local\Temp\cckGfb7j.s 			page 9


 432:Drivers/STM32L0xx_HAL_Driver/Src/stm32l0xx_hal_uart_ex.c **** 
 433:Drivers/STM32L0xx_HAL_Driver/Src/stm32l0xx_hal_uart_ex.c ****   /* Set the wake-up selection scheme */
 434:Drivers/STM32L0xx_HAL_Driver/Src/stm32l0xx_hal_uart_ex.c ****   MODIFY_REG(huart->Instance->CR3, USART_CR3_WUS, WakeUpSelection.WakeUpEvent);
 435:Drivers/STM32L0xx_HAL_Driver/Src/stm32l0xx_hal_uart_ex.c **** 
 436:Drivers/STM32L0xx_HAL_Driver/Src/stm32l0xx_hal_uart_ex.c ****   if (WakeUpSelection.WakeUpEvent == UART_WAKEUP_ON_ADDRESS)
 437:Drivers/STM32L0xx_HAL_Driver/Src/stm32l0xx_hal_uart_ex.c ****   {
 438:Drivers/STM32L0xx_HAL_Driver/Src/stm32l0xx_hal_uart_ex.c ****     UARTEx_Wakeup_AddressConfig(huart, WakeUpSelection);
 439:Drivers/STM32L0xx_HAL_Driver/Src/stm32l0xx_hal_uart_ex.c ****   }
 440:Drivers/STM32L0xx_HAL_Driver/Src/stm32l0xx_hal_uart_ex.c **** 
 441:Drivers/STM32L0xx_HAL_Driver/Src/stm32l0xx_hal_uart_ex.c ****   /* Enable the Peripheral */
 442:Drivers/STM32L0xx_HAL_Driver/Src/stm32l0xx_hal_uart_ex.c ****   __HAL_UART_ENABLE(huart);
 443:Drivers/STM32L0xx_HAL_Driver/Src/stm32l0xx_hal_uart_ex.c **** 
 444:Drivers/STM32L0xx_HAL_Driver/Src/stm32l0xx_hal_uart_ex.c ****   /* Init tickstart for timeout management */
 445:Drivers/STM32L0xx_HAL_Driver/Src/stm32l0xx_hal_uart_ex.c ****   tickstart = HAL_GetTick();
 446:Drivers/STM32L0xx_HAL_Driver/Src/stm32l0xx_hal_uart_ex.c **** 
 447:Drivers/STM32L0xx_HAL_Driver/Src/stm32l0xx_hal_uart_ex.c ****   /* Wait until REACK flag is set */
 448:Drivers/STM32L0xx_HAL_Driver/Src/stm32l0xx_hal_uart_ex.c ****   if (UART_WaitOnFlagUntilTimeout(huart, USART_ISR_REACK, RESET, tickstart, HAL_UART_TIMEOUT_VALUE)
 449:Drivers/STM32L0xx_HAL_Driver/Src/stm32l0xx_hal_uart_ex.c ****   {
 450:Drivers/STM32L0xx_HAL_Driver/Src/stm32l0xx_hal_uart_ex.c ****     status = HAL_TIMEOUT;
 451:Drivers/STM32L0xx_HAL_Driver/Src/stm32l0xx_hal_uart_ex.c ****   }
 452:Drivers/STM32L0xx_HAL_Driver/Src/stm32l0xx_hal_uart_ex.c ****   else
 453:Drivers/STM32L0xx_HAL_Driver/Src/stm32l0xx_hal_uart_ex.c ****   {
 454:Drivers/STM32L0xx_HAL_Driver/Src/stm32l0xx_hal_uart_ex.c ****     /* Initialize the UART State */
 455:Drivers/STM32L0xx_HAL_Driver/Src/stm32l0xx_hal_uart_ex.c ****     huart->gState = HAL_UART_STATE_READY;
 456:Drivers/STM32L0xx_HAL_Driver/Src/stm32l0xx_hal_uart_ex.c ****   }
 457:Drivers/STM32L0xx_HAL_Driver/Src/stm32l0xx_hal_uart_ex.c **** 
 458:Drivers/STM32L0xx_HAL_Driver/Src/stm32l0xx_hal_uart_ex.c ****   /* Process Unlocked */
 459:Drivers/STM32L0xx_HAL_Driver/Src/stm32l0xx_hal_uart_ex.c ****   __HAL_UNLOCK(huart);
 460:Drivers/STM32L0xx_HAL_Driver/Src/stm32l0xx_hal_uart_ex.c **** 
 461:Drivers/STM32L0xx_HAL_Driver/Src/stm32l0xx_hal_uart_ex.c ****   return status;
 462:Drivers/STM32L0xx_HAL_Driver/Src/stm32l0xx_hal_uart_ex.c **** }
 463:Drivers/STM32L0xx_HAL_Driver/Src/stm32l0xx_hal_uart_ex.c **** 
 464:Drivers/STM32L0xx_HAL_Driver/Src/stm32l0xx_hal_uart_ex.c **** /**
 465:Drivers/STM32L0xx_HAL_Driver/Src/stm32l0xx_hal_uart_ex.c ****   * @brief Enable UART Stop Mode.
 466:Drivers/STM32L0xx_HAL_Driver/Src/stm32l0xx_hal_uart_ex.c ****   * @note The UART is able to wake up the MCU from Stop 1 mode as long as UART clock is HSI or LSE.
 467:Drivers/STM32L0xx_HAL_Driver/Src/stm32l0xx_hal_uart_ex.c ****   * @param huart UART handle.
 468:Drivers/STM32L0xx_HAL_Driver/Src/stm32l0xx_hal_uart_ex.c ****   * @retval HAL status
 469:Drivers/STM32L0xx_HAL_Driver/Src/stm32l0xx_hal_uart_ex.c ****   */
 470:Drivers/STM32L0xx_HAL_Driver/Src/stm32l0xx_hal_uart_ex.c **** HAL_StatusTypeDef HAL_UARTEx_EnableStopMode(UART_HandleTypeDef *huart)
 471:Drivers/STM32L0xx_HAL_Driver/Src/stm32l0xx_hal_uart_ex.c **** {
 472:Drivers/STM32L0xx_HAL_Driver/Src/stm32l0xx_hal_uart_ex.c ****   /* Process Locked */
 473:Drivers/STM32L0xx_HAL_Driver/Src/stm32l0xx_hal_uart_ex.c ****   __HAL_LOCK(huart);
 474:Drivers/STM32L0xx_HAL_Driver/Src/stm32l0xx_hal_uart_ex.c **** 
 475:Drivers/STM32L0xx_HAL_Driver/Src/stm32l0xx_hal_uart_ex.c ****   /* Set UESM bit */
 476:Drivers/STM32L0xx_HAL_Driver/Src/stm32l0xx_hal_uart_ex.c ****   ATOMIC_SET_BIT(huart->Instance->CR1, USART_CR1_UESM);
 477:Drivers/STM32L0xx_HAL_Driver/Src/stm32l0xx_hal_uart_ex.c **** 
 478:Drivers/STM32L0xx_HAL_Driver/Src/stm32l0xx_hal_uart_ex.c ****   /* Process Unlocked */
 479:Drivers/STM32L0xx_HAL_Driver/Src/stm32l0xx_hal_uart_ex.c ****   __HAL_UNLOCK(huart);
 480:Drivers/STM32L0xx_HAL_Driver/Src/stm32l0xx_hal_uart_ex.c **** 
 481:Drivers/STM32L0xx_HAL_Driver/Src/stm32l0xx_hal_uart_ex.c ****   return HAL_OK;
 482:Drivers/STM32L0xx_HAL_Driver/Src/stm32l0xx_hal_uart_ex.c **** }
 483:Drivers/STM32L0xx_HAL_Driver/Src/stm32l0xx_hal_uart_ex.c **** 
 484:Drivers/STM32L0xx_HAL_Driver/Src/stm32l0xx_hal_uart_ex.c **** /**
 485:Drivers/STM32L0xx_HAL_Driver/Src/stm32l0xx_hal_uart_ex.c ****   * @brief Disable UART Stop Mode.
 486:Drivers/STM32L0xx_HAL_Driver/Src/stm32l0xx_hal_uart_ex.c ****   * @param huart UART handle.
 487:Drivers/STM32L0xx_HAL_Driver/Src/stm32l0xx_hal_uart_ex.c ****   * @retval HAL status
 488:Drivers/STM32L0xx_HAL_Driver/Src/stm32l0xx_hal_uart_ex.c ****   */
ARM GAS  C:\Users\lzh\AppData\Local\Temp\cckGfb7j.s 			page 10


 489:Drivers/STM32L0xx_HAL_Driver/Src/stm32l0xx_hal_uart_ex.c **** HAL_StatusTypeDef HAL_UARTEx_DisableStopMode(UART_HandleTypeDef *huart)
 490:Drivers/STM32L0xx_HAL_Driver/Src/stm32l0xx_hal_uart_ex.c **** {
 491:Drivers/STM32L0xx_HAL_Driver/Src/stm32l0xx_hal_uart_ex.c ****   /* Process Locked */
 492:Drivers/STM32L0xx_HAL_Driver/Src/stm32l0xx_hal_uart_ex.c ****   __HAL_LOCK(huart);
 493:Drivers/STM32L0xx_HAL_Driver/Src/stm32l0xx_hal_uart_ex.c **** 
 494:Drivers/STM32L0xx_HAL_Driver/Src/stm32l0xx_hal_uart_ex.c ****   /* Clear UESM bit */
 495:Drivers/STM32L0xx_HAL_Driver/Src/stm32l0xx_hal_uart_ex.c ****   ATOMIC_CLEAR_BIT(huart->Instance->CR1, USART_CR1_UESM);
 496:Drivers/STM32L0xx_HAL_Driver/Src/stm32l0xx_hal_uart_ex.c **** 
 497:Drivers/STM32L0xx_HAL_Driver/Src/stm32l0xx_hal_uart_ex.c ****   /* Process Unlocked */
 498:Drivers/STM32L0xx_HAL_Driver/Src/stm32l0xx_hal_uart_ex.c ****   __HAL_UNLOCK(huart);
 499:Drivers/STM32L0xx_HAL_Driver/Src/stm32l0xx_hal_uart_ex.c **** 
 500:Drivers/STM32L0xx_HAL_Driver/Src/stm32l0xx_hal_uart_ex.c ****   return HAL_OK;
 501:Drivers/STM32L0xx_HAL_Driver/Src/stm32l0xx_hal_uart_ex.c **** }
 502:Drivers/STM32L0xx_HAL_Driver/Src/stm32l0xx_hal_uart_ex.c **** 
 503:Drivers/STM32L0xx_HAL_Driver/Src/stm32l0xx_hal_uart_ex.c **** /**
 504:Drivers/STM32L0xx_HAL_Driver/Src/stm32l0xx_hal_uart_ex.c ****   * @brief Receive an amount of data in blocking mode till either the expected number of data
 505:Drivers/STM32L0xx_HAL_Driver/Src/stm32l0xx_hal_uart_ex.c ****   *        is received or an IDLE event occurs.
 506:Drivers/STM32L0xx_HAL_Driver/Src/stm32l0xx_hal_uart_ex.c ****   * @note  HAL_OK is returned if reception is completed (expected number of data has been received)
 507:Drivers/STM32L0xx_HAL_Driver/Src/stm32l0xx_hal_uart_ex.c ****   *        or if reception is stopped after IDLE event (less than the expected number of data has b
 508:Drivers/STM32L0xx_HAL_Driver/Src/stm32l0xx_hal_uart_ex.c ****   *        In this case, RxLen output parameter indicates number of data available in reception buf
 509:Drivers/STM32L0xx_HAL_Driver/Src/stm32l0xx_hal_uart_ex.c ****   * @note  When UART parity is not enabled (PCE = 0), and Word Length is configured to 9 bits (M1-M
 510:Drivers/STM32L0xx_HAL_Driver/Src/stm32l0xx_hal_uart_ex.c ****   *        the received data is handled as a set of uint16_t. In this case, Size must indicate the 
 511:Drivers/STM32L0xx_HAL_Driver/Src/stm32l0xx_hal_uart_ex.c ****   *        of uint16_t available through pData.
 512:Drivers/STM32L0xx_HAL_Driver/Src/stm32l0xx_hal_uart_ex.c ****   * @note   When UART parity is not enabled (PCE = 0), and Word Length is configured to 9 bits (M1-
 513:Drivers/STM32L0xx_HAL_Driver/Src/stm32l0xx_hal_uart_ex.c ****   *         address of user data buffer for storing data to be received, should be aligned on a hal
 514:Drivers/STM32L0xx_HAL_Driver/Src/stm32l0xx_hal_uart_ex.c ****   *         (16 bits) (as received data will be handled using uint16_t pointer cast). Depending on 
 515:Drivers/STM32L0xx_HAL_Driver/Src/stm32l0xx_hal_uart_ex.c ****   *         use of specific alignment compilation directives or pragmas might be required to ensure
 516:Drivers/STM32L0xx_HAL_Driver/Src/stm32l0xx_hal_uart_ex.c ****   *         alignment for pData.
 517:Drivers/STM32L0xx_HAL_Driver/Src/stm32l0xx_hal_uart_ex.c ****   * @param huart   UART handle.
 518:Drivers/STM32L0xx_HAL_Driver/Src/stm32l0xx_hal_uart_ex.c ****   * @param pData   Pointer to data buffer (uint8_t or uint16_t data elements).
 519:Drivers/STM32L0xx_HAL_Driver/Src/stm32l0xx_hal_uart_ex.c ****   * @param Size    Amount of data elements (uint8_t or uint16_t) to be received.
 520:Drivers/STM32L0xx_HAL_Driver/Src/stm32l0xx_hal_uart_ex.c ****   * @param RxLen   Number of data elements finally received
 521:Drivers/STM32L0xx_HAL_Driver/Src/stm32l0xx_hal_uart_ex.c ****   *                (could be lower than Size, in case reception ends on IDLE event)
 522:Drivers/STM32L0xx_HAL_Driver/Src/stm32l0xx_hal_uart_ex.c ****   * @param Timeout Timeout duration expressed in ms (covers the whole reception sequence).
 523:Drivers/STM32L0xx_HAL_Driver/Src/stm32l0xx_hal_uart_ex.c ****   * @retval HAL status
 524:Drivers/STM32L0xx_HAL_Driver/Src/stm32l0xx_hal_uart_ex.c ****   */
 525:Drivers/STM32L0xx_HAL_Driver/Src/stm32l0xx_hal_uart_ex.c **** HAL_StatusTypeDef HAL_UARTEx_ReceiveToIdle(UART_HandleTypeDef *huart, uint8_t *pData, uint16_t Size
 526:Drivers/STM32L0xx_HAL_Driver/Src/stm32l0xx_hal_uart_ex.c ****                                            uint32_t Timeout)
 527:Drivers/STM32L0xx_HAL_Driver/Src/stm32l0xx_hal_uart_ex.c **** {
 528:Drivers/STM32L0xx_HAL_Driver/Src/stm32l0xx_hal_uart_ex.c ****   uint8_t  *pdata8bits;
 529:Drivers/STM32L0xx_HAL_Driver/Src/stm32l0xx_hal_uart_ex.c ****   uint16_t *pdata16bits;
 530:Drivers/STM32L0xx_HAL_Driver/Src/stm32l0xx_hal_uart_ex.c ****   uint16_t uhMask;
 531:Drivers/STM32L0xx_HAL_Driver/Src/stm32l0xx_hal_uart_ex.c ****   uint32_t tickstart;
 532:Drivers/STM32L0xx_HAL_Driver/Src/stm32l0xx_hal_uart_ex.c **** 
 533:Drivers/STM32L0xx_HAL_Driver/Src/stm32l0xx_hal_uart_ex.c ****   /* Check that a Rx process is not already ongoing */
 534:Drivers/STM32L0xx_HAL_Driver/Src/stm32l0xx_hal_uart_ex.c ****   if (huart->RxState == HAL_UART_STATE_READY)
 535:Drivers/STM32L0xx_HAL_Driver/Src/stm32l0xx_hal_uart_ex.c ****   {
 536:Drivers/STM32L0xx_HAL_Driver/Src/stm32l0xx_hal_uart_ex.c ****     if ((pData == NULL) || (Size == 0U))
 537:Drivers/STM32L0xx_HAL_Driver/Src/stm32l0xx_hal_uart_ex.c ****     {
 538:Drivers/STM32L0xx_HAL_Driver/Src/stm32l0xx_hal_uart_ex.c ****       return  HAL_ERROR;
 539:Drivers/STM32L0xx_HAL_Driver/Src/stm32l0xx_hal_uart_ex.c ****     }
 540:Drivers/STM32L0xx_HAL_Driver/Src/stm32l0xx_hal_uart_ex.c **** 
 541:Drivers/STM32L0xx_HAL_Driver/Src/stm32l0xx_hal_uart_ex.c ****     /* In case of 9bits/No Parity transfer, pData buffer provided as input parameter
 542:Drivers/STM32L0xx_HAL_Driver/Src/stm32l0xx_hal_uart_ex.c ****        should be aligned on a uint16_t frontier, as data to be received from RDR will be
 543:Drivers/STM32L0xx_HAL_Driver/Src/stm32l0xx_hal_uart_ex.c ****        handled through a uint16_t cast. */
 544:Drivers/STM32L0xx_HAL_Driver/Src/stm32l0xx_hal_uart_ex.c ****     if ((huart->Init.WordLength == UART_WORDLENGTH_9B) && (huart->Init.Parity == UART_PARITY_NONE))
 545:Drivers/STM32L0xx_HAL_Driver/Src/stm32l0xx_hal_uart_ex.c ****     {
ARM GAS  C:\Users\lzh\AppData\Local\Temp\cckGfb7j.s 			page 11


 546:Drivers/STM32L0xx_HAL_Driver/Src/stm32l0xx_hal_uart_ex.c ****       if ((((uint32_t)pData) & 1U) != 0U)
 547:Drivers/STM32L0xx_HAL_Driver/Src/stm32l0xx_hal_uart_ex.c ****       {
 548:Drivers/STM32L0xx_HAL_Driver/Src/stm32l0xx_hal_uart_ex.c ****         return  HAL_ERROR;
 549:Drivers/STM32L0xx_HAL_Driver/Src/stm32l0xx_hal_uart_ex.c ****       }
 550:Drivers/STM32L0xx_HAL_Driver/Src/stm32l0xx_hal_uart_ex.c ****     }
 551:Drivers/STM32L0xx_HAL_Driver/Src/stm32l0xx_hal_uart_ex.c **** 
 552:Drivers/STM32L0xx_HAL_Driver/Src/stm32l0xx_hal_uart_ex.c ****     huart->ErrorCode = HAL_UART_ERROR_NONE;
 553:Drivers/STM32L0xx_HAL_Driver/Src/stm32l0xx_hal_uart_ex.c ****     huart->RxState = HAL_UART_STATE_BUSY_RX;
 554:Drivers/STM32L0xx_HAL_Driver/Src/stm32l0xx_hal_uart_ex.c ****     huart->ReceptionType = HAL_UART_RECEPTION_TOIDLE;
 555:Drivers/STM32L0xx_HAL_Driver/Src/stm32l0xx_hal_uart_ex.c ****     huart->RxEventType = HAL_UART_RXEVENT_TC;
 556:Drivers/STM32L0xx_HAL_Driver/Src/stm32l0xx_hal_uart_ex.c **** 
 557:Drivers/STM32L0xx_HAL_Driver/Src/stm32l0xx_hal_uart_ex.c ****     /* Init tickstart for timeout management */
 558:Drivers/STM32L0xx_HAL_Driver/Src/stm32l0xx_hal_uart_ex.c ****     tickstart = HAL_GetTick();
 559:Drivers/STM32L0xx_HAL_Driver/Src/stm32l0xx_hal_uart_ex.c **** 
 560:Drivers/STM32L0xx_HAL_Driver/Src/stm32l0xx_hal_uart_ex.c ****     huart->RxXferSize  = Size;
 561:Drivers/STM32L0xx_HAL_Driver/Src/stm32l0xx_hal_uart_ex.c ****     huart->RxXferCount = Size;
 562:Drivers/STM32L0xx_HAL_Driver/Src/stm32l0xx_hal_uart_ex.c **** 
 563:Drivers/STM32L0xx_HAL_Driver/Src/stm32l0xx_hal_uart_ex.c ****     /* Computation of UART mask to apply to RDR register */
 564:Drivers/STM32L0xx_HAL_Driver/Src/stm32l0xx_hal_uart_ex.c ****     UART_MASK_COMPUTATION(huart);
 565:Drivers/STM32L0xx_HAL_Driver/Src/stm32l0xx_hal_uart_ex.c ****     uhMask = huart->Mask;
 566:Drivers/STM32L0xx_HAL_Driver/Src/stm32l0xx_hal_uart_ex.c **** 
 567:Drivers/STM32L0xx_HAL_Driver/Src/stm32l0xx_hal_uart_ex.c ****     /* In case of 9bits/No Parity transfer, pRxData needs to be handled as a uint16_t pointer */
 568:Drivers/STM32L0xx_HAL_Driver/Src/stm32l0xx_hal_uart_ex.c ****     if ((huart->Init.WordLength == UART_WORDLENGTH_9B) && (huart->Init.Parity == UART_PARITY_NONE))
 569:Drivers/STM32L0xx_HAL_Driver/Src/stm32l0xx_hal_uart_ex.c ****     {
 570:Drivers/STM32L0xx_HAL_Driver/Src/stm32l0xx_hal_uart_ex.c ****       pdata8bits  = NULL;
 571:Drivers/STM32L0xx_HAL_Driver/Src/stm32l0xx_hal_uart_ex.c ****       pdata16bits = (uint16_t *) pData;
 572:Drivers/STM32L0xx_HAL_Driver/Src/stm32l0xx_hal_uart_ex.c ****     }
 573:Drivers/STM32L0xx_HAL_Driver/Src/stm32l0xx_hal_uart_ex.c ****     else
 574:Drivers/STM32L0xx_HAL_Driver/Src/stm32l0xx_hal_uart_ex.c ****     {
 575:Drivers/STM32L0xx_HAL_Driver/Src/stm32l0xx_hal_uart_ex.c ****       pdata8bits  = pData;
 576:Drivers/STM32L0xx_HAL_Driver/Src/stm32l0xx_hal_uart_ex.c ****       pdata16bits = NULL;
 577:Drivers/STM32L0xx_HAL_Driver/Src/stm32l0xx_hal_uart_ex.c ****     }
 578:Drivers/STM32L0xx_HAL_Driver/Src/stm32l0xx_hal_uart_ex.c **** 
 579:Drivers/STM32L0xx_HAL_Driver/Src/stm32l0xx_hal_uart_ex.c ****     /* Initialize output number of received elements */
 580:Drivers/STM32L0xx_HAL_Driver/Src/stm32l0xx_hal_uart_ex.c ****     *RxLen = 0U;
 581:Drivers/STM32L0xx_HAL_Driver/Src/stm32l0xx_hal_uart_ex.c **** 
 582:Drivers/STM32L0xx_HAL_Driver/Src/stm32l0xx_hal_uart_ex.c ****     /* as long as data have to be received */
 583:Drivers/STM32L0xx_HAL_Driver/Src/stm32l0xx_hal_uart_ex.c ****     while (huart->RxXferCount > 0U)
 584:Drivers/STM32L0xx_HAL_Driver/Src/stm32l0xx_hal_uart_ex.c ****     {
 585:Drivers/STM32L0xx_HAL_Driver/Src/stm32l0xx_hal_uart_ex.c ****       /* Check if IDLE flag is set */
 586:Drivers/STM32L0xx_HAL_Driver/Src/stm32l0xx_hal_uart_ex.c ****       if (__HAL_UART_GET_FLAG(huart, UART_FLAG_IDLE))
 587:Drivers/STM32L0xx_HAL_Driver/Src/stm32l0xx_hal_uart_ex.c ****       {
 588:Drivers/STM32L0xx_HAL_Driver/Src/stm32l0xx_hal_uart_ex.c ****         /* Clear IDLE flag in ISR */
 589:Drivers/STM32L0xx_HAL_Driver/Src/stm32l0xx_hal_uart_ex.c ****         __HAL_UART_CLEAR_FLAG(huart, UART_CLEAR_IDLEF);
 590:Drivers/STM32L0xx_HAL_Driver/Src/stm32l0xx_hal_uart_ex.c **** 
 591:Drivers/STM32L0xx_HAL_Driver/Src/stm32l0xx_hal_uart_ex.c ****         /* If Set, but no data ever received, clear flag without exiting loop */
 592:Drivers/STM32L0xx_HAL_Driver/Src/stm32l0xx_hal_uart_ex.c ****         /* If Set, and data has already been received, this means Idle Event is valid : End recepti
 593:Drivers/STM32L0xx_HAL_Driver/Src/stm32l0xx_hal_uart_ex.c ****         if (*RxLen > 0U)
 594:Drivers/STM32L0xx_HAL_Driver/Src/stm32l0xx_hal_uart_ex.c ****         {
 595:Drivers/STM32L0xx_HAL_Driver/Src/stm32l0xx_hal_uart_ex.c ****           huart->RxEventType = HAL_UART_RXEVENT_IDLE;
 596:Drivers/STM32L0xx_HAL_Driver/Src/stm32l0xx_hal_uart_ex.c ****           huart->RxState = HAL_UART_STATE_READY;
 597:Drivers/STM32L0xx_HAL_Driver/Src/stm32l0xx_hal_uart_ex.c **** 
 598:Drivers/STM32L0xx_HAL_Driver/Src/stm32l0xx_hal_uart_ex.c ****           return HAL_OK;
 599:Drivers/STM32L0xx_HAL_Driver/Src/stm32l0xx_hal_uart_ex.c ****         }
 600:Drivers/STM32L0xx_HAL_Driver/Src/stm32l0xx_hal_uart_ex.c ****       }
 601:Drivers/STM32L0xx_HAL_Driver/Src/stm32l0xx_hal_uart_ex.c **** 
 602:Drivers/STM32L0xx_HAL_Driver/Src/stm32l0xx_hal_uart_ex.c ****       /* Check if RXNE flag is set */
ARM GAS  C:\Users\lzh\AppData\Local\Temp\cckGfb7j.s 			page 12


 603:Drivers/STM32L0xx_HAL_Driver/Src/stm32l0xx_hal_uart_ex.c ****       if (__HAL_UART_GET_FLAG(huart, UART_FLAG_RXNE))
 604:Drivers/STM32L0xx_HAL_Driver/Src/stm32l0xx_hal_uart_ex.c ****       {
 605:Drivers/STM32L0xx_HAL_Driver/Src/stm32l0xx_hal_uart_ex.c ****         if (pdata8bits == NULL)
 606:Drivers/STM32L0xx_HAL_Driver/Src/stm32l0xx_hal_uart_ex.c ****         {
 607:Drivers/STM32L0xx_HAL_Driver/Src/stm32l0xx_hal_uart_ex.c ****           *pdata16bits = (uint16_t)(huart->Instance->RDR & uhMask);
 608:Drivers/STM32L0xx_HAL_Driver/Src/stm32l0xx_hal_uart_ex.c ****           pdata16bits++;
 609:Drivers/STM32L0xx_HAL_Driver/Src/stm32l0xx_hal_uart_ex.c ****         }
 610:Drivers/STM32L0xx_HAL_Driver/Src/stm32l0xx_hal_uart_ex.c ****         else
 611:Drivers/STM32L0xx_HAL_Driver/Src/stm32l0xx_hal_uart_ex.c ****         {
 612:Drivers/STM32L0xx_HAL_Driver/Src/stm32l0xx_hal_uart_ex.c ****           *pdata8bits = (uint8_t)(huart->Instance->RDR & (uint8_t)uhMask);
 613:Drivers/STM32L0xx_HAL_Driver/Src/stm32l0xx_hal_uart_ex.c ****           pdata8bits++;
 614:Drivers/STM32L0xx_HAL_Driver/Src/stm32l0xx_hal_uart_ex.c ****         }
 615:Drivers/STM32L0xx_HAL_Driver/Src/stm32l0xx_hal_uart_ex.c ****         /* Increment number of received elements */
 616:Drivers/STM32L0xx_HAL_Driver/Src/stm32l0xx_hal_uart_ex.c ****         *RxLen += 1U;
 617:Drivers/STM32L0xx_HAL_Driver/Src/stm32l0xx_hal_uart_ex.c ****         huart->RxXferCount--;
 618:Drivers/STM32L0xx_HAL_Driver/Src/stm32l0xx_hal_uart_ex.c ****       }
 619:Drivers/STM32L0xx_HAL_Driver/Src/stm32l0xx_hal_uart_ex.c **** 
 620:Drivers/STM32L0xx_HAL_Driver/Src/stm32l0xx_hal_uart_ex.c ****       /* Check for the Timeout */
 621:Drivers/STM32L0xx_HAL_Driver/Src/stm32l0xx_hal_uart_ex.c ****       if (Timeout != HAL_MAX_DELAY)
 622:Drivers/STM32L0xx_HAL_Driver/Src/stm32l0xx_hal_uart_ex.c ****       {
 623:Drivers/STM32L0xx_HAL_Driver/Src/stm32l0xx_hal_uart_ex.c ****         if (((HAL_GetTick() - tickstart) > Timeout) || (Timeout == 0U))
 624:Drivers/STM32L0xx_HAL_Driver/Src/stm32l0xx_hal_uart_ex.c ****         {
 625:Drivers/STM32L0xx_HAL_Driver/Src/stm32l0xx_hal_uart_ex.c ****           huart->RxState = HAL_UART_STATE_READY;
 626:Drivers/STM32L0xx_HAL_Driver/Src/stm32l0xx_hal_uart_ex.c **** 
 627:Drivers/STM32L0xx_HAL_Driver/Src/stm32l0xx_hal_uart_ex.c ****           return HAL_TIMEOUT;
 628:Drivers/STM32L0xx_HAL_Driver/Src/stm32l0xx_hal_uart_ex.c ****         }
 629:Drivers/STM32L0xx_HAL_Driver/Src/stm32l0xx_hal_uart_ex.c ****       }
 630:Drivers/STM32L0xx_HAL_Driver/Src/stm32l0xx_hal_uart_ex.c ****     }
 631:Drivers/STM32L0xx_HAL_Driver/Src/stm32l0xx_hal_uart_ex.c **** 
 632:Drivers/STM32L0xx_HAL_Driver/Src/stm32l0xx_hal_uart_ex.c ****     /* Set number of received elements in output parameter : RxLen */
 633:Drivers/STM32L0xx_HAL_Driver/Src/stm32l0xx_hal_uart_ex.c ****     *RxLen = huart->RxXferSize - huart->RxXferCount;
 634:Drivers/STM32L0xx_HAL_Driver/Src/stm32l0xx_hal_uart_ex.c ****     /* At end of Rx process, restore huart->RxState to Ready */
 635:Drivers/STM32L0xx_HAL_Driver/Src/stm32l0xx_hal_uart_ex.c ****     huart->RxState = HAL_UART_STATE_READY;
 636:Drivers/STM32L0xx_HAL_Driver/Src/stm32l0xx_hal_uart_ex.c **** 
 637:Drivers/STM32L0xx_HAL_Driver/Src/stm32l0xx_hal_uart_ex.c ****     return HAL_OK;
 638:Drivers/STM32L0xx_HAL_Driver/Src/stm32l0xx_hal_uart_ex.c ****   }
 639:Drivers/STM32L0xx_HAL_Driver/Src/stm32l0xx_hal_uart_ex.c ****   else
 640:Drivers/STM32L0xx_HAL_Driver/Src/stm32l0xx_hal_uart_ex.c ****   {
 641:Drivers/STM32L0xx_HAL_Driver/Src/stm32l0xx_hal_uart_ex.c ****     return HAL_BUSY;
 642:Drivers/STM32L0xx_HAL_Driver/Src/stm32l0xx_hal_uart_ex.c ****   }
 643:Drivers/STM32L0xx_HAL_Driver/Src/stm32l0xx_hal_uart_ex.c **** }
 644:Drivers/STM32L0xx_HAL_Driver/Src/stm32l0xx_hal_uart_ex.c **** 
 645:Drivers/STM32L0xx_HAL_Driver/Src/stm32l0xx_hal_uart_ex.c **** /**
 646:Drivers/STM32L0xx_HAL_Driver/Src/stm32l0xx_hal_uart_ex.c ****   * @brief Receive an amount of data in interrupt mode till either the expected number of data
 647:Drivers/STM32L0xx_HAL_Driver/Src/stm32l0xx_hal_uart_ex.c ****   *        is received or an IDLE event occurs.
 648:Drivers/STM32L0xx_HAL_Driver/Src/stm32l0xx_hal_uart_ex.c ****   * @note  Reception is initiated by this function call. Further progress of reception is achieved 
 649:Drivers/STM32L0xx_HAL_Driver/Src/stm32l0xx_hal_uart_ex.c ****   *        to UART interrupts raised by RXNE and IDLE events. Callback is called at end of receptio
 650:Drivers/STM32L0xx_HAL_Driver/Src/stm32l0xx_hal_uart_ex.c ****   *        number of received data elements.
 651:Drivers/STM32L0xx_HAL_Driver/Src/stm32l0xx_hal_uart_ex.c ****   * @note  When UART parity is not enabled (PCE = 0), and Word Length is configured to 9 bits (M1-M
 652:Drivers/STM32L0xx_HAL_Driver/Src/stm32l0xx_hal_uart_ex.c ****   *        the received data is handled as a set of uint16_t. In this case, Size must indicate the 
 653:Drivers/STM32L0xx_HAL_Driver/Src/stm32l0xx_hal_uart_ex.c ****   *        of uint16_t available through pData.
 654:Drivers/STM32L0xx_HAL_Driver/Src/stm32l0xx_hal_uart_ex.c ****   * @note  When UART parity is not enabled (PCE = 0), and Word Length is configured to 9 bits (M1-M
 655:Drivers/STM32L0xx_HAL_Driver/Src/stm32l0xx_hal_uart_ex.c ****   *        address of user data buffer for storing data to be received, should be aligned on a half
 656:Drivers/STM32L0xx_HAL_Driver/Src/stm32l0xx_hal_uart_ex.c ****   *        (16 bits) (as received data will be handled using uint16_t pointer cast). Depending on c
 657:Drivers/STM32L0xx_HAL_Driver/Src/stm32l0xx_hal_uart_ex.c ****   *        use of specific alignment compilation directives or pragmas might be required
 658:Drivers/STM32L0xx_HAL_Driver/Src/stm32l0xx_hal_uart_ex.c ****   *        to ensure proper alignment for pData.
 659:Drivers/STM32L0xx_HAL_Driver/Src/stm32l0xx_hal_uart_ex.c ****   * @param huart UART handle.
ARM GAS  C:\Users\lzh\AppData\Local\Temp\cckGfb7j.s 			page 13


 660:Drivers/STM32L0xx_HAL_Driver/Src/stm32l0xx_hal_uart_ex.c ****   * @param pData Pointer to data buffer (uint8_t or uint16_t data elements).
 661:Drivers/STM32L0xx_HAL_Driver/Src/stm32l0xx_hal_uart_ex.c ****   * @param Size  Amount of data elements (uint8_t or uint16_t) to be received.
 662:Drivers/STM32L0xx_HAL_Driver/Src/stm32l0xx_hal_uart_ex.c ****   * @retval HAL status
 663:Drivers/STM32L0xx_HAL_Driver/Src/stm32l0xx_hal_uart_ex.c ****   */
 664:Drivers/STM32L0xx_HAL_Driver/Src/stm32l0xx_hal_uart_ex.c **** HAL_StatusTypeDef HAL_UARTEx_ReceiveToIdle_IT(UART_HandleTypeDef *huart, uint8_t *pData, uint16_t S
 665:Drivers/STM32L0xx_HAL_Driver/Src/stm32l0xx_hal_uart_ex.c **** {
 666:Drivers/STM32L0xx_HAL_Driver/Src/stm32l0xx_hal_uart_ex.c ****   HAL_StatusTypeDef status = HAL_OK;
 667:Drivers/STM32L0xx_HAL_Driver/Src/stm32l0xx_hal_uart_ex.c **** 
 668:Drivers/STM32L0xx_HAL_Driver/Src/stm32l0xx_hal_uart_ex.c ****   /* Check that a Rx process is not already ongoing */
 669:Drivers/STM32L0xx_HAL_Driver/Src/stm32l0xx_hal_uart_ex.c ****   if (huart->RxState == HAL_UART_STATE_READY)
 670:Drivers/STM32L0xx_HAL_Driver/Src/stm32l0xx_hal_uart_ex.c ****   {
 671:Drivers/STM32L0xx_HAL_Driver/Src/stm32l0xx_hal_uart_ex.c ****     if ((pData == NULL) || (Size == 0U))
 672:Drivers/STM32L0xx_HAL_Driver/Src/stm32l0xx_hal_uart_ex.c ****     {
 673:Drivers/STM32L0xx_HAL_Driver/Src/stm32l0xx_hal_uart_ex.c ****       return HAL_ERROR;
 674:Drivers/STM32L0xx_HAL_Driver/Src/stm32l0xx_hal_uart_ex.c ****     }
 675:Drivers/STM32L0xx_HAL_Driver/Src/stm32l0xx_hal_uart_ex.c **** 
 676:Drivers/STM32L0xx_HAL_Driver/Src/stm32l0xx_hal_uart_ex.c ****     /* In case of 9bits/No Parity transfer, pData buffer provided as input parameter
 677:Drivers/STM32L0xx_HAL_Driver/Src/stm32l0xx_hal_uart_ex.c ****        should be aligned on a uint16_t frontier, as data to be received from RDR will be
 678:Drivers/STM32L0xx_HAL_Driver/Src/stm32l0xx_hal_uart_ex.c ****        handled through a uint16_t cast. */
 679:Drivers/STM32L0xx_HAL_Driver/Src/stm32l0xx_hal_uart_ex.c ****     if ((huart->Init.WordLength == UART_WORDLENGTH_9B) && (huart->Init.Parity == UART_PARITY_NONE))
 680:Drivers/STM32L0xx_HAL_Driver/Src/stm32l0xx_hal_uart_ex.c ****     {
 681:Drivers/STM32L0xx_HAL_Driver/Src/stm32l0xx_hal_uart_ex.c ****       if ((((uint32_t)pData) & 1U) != 0U)
 682:Drivers/STM32L0xx_HAL_Driver/Src/stm32l0xx_hal_uart_ex.c ****       {
 683:Drivers/STM32L0xx_HAL_Driver/Src/stm32l0xx_hal_uart_ex.c ****         return  HAL_ERROR;
 684:Drivers/STM32L0xx_HAL_Driver/Src/stm32l0xx_hal_uart_ex.c ****       }
 685:Drivers/STM32L0xx_HAL_Driver/Src/stm32l0xx_hal_uart_ex.c ****     }
 686:Drivers/STM32L0xx_HAL_Driver/Src/stm32l0xx_hal_uart_ex.c **** 
 687:Drivers/STM32L0xx_HAL_Driver/Src/stm32l0xx_hal_uart_ex.c ****     /* Set Reception type to reception till IDLE Event*/
 688:Drivers/STM32L0xx_HAL_Driver/Src/stm32l0xx_hal_uart_ex.c ****     huart->ReceptionType = HAL_UART_RECEPTION_TOIDLE;
 689:Drivers/STM32L0xx_HAL_Driver/Src/stm32l0xx_hal_uart_ex.c ****     huart->RxEventType = HAL_UART_RXEVENT_TC;
 690:Drivers/STM32L0xx_HAL_Driver/Src/stm32l0xx_hal_uart_ex.c **** 
 691:Drivers/STM32L0xx_HAL_Driver/Src/stm32l0xx_hal_uart_ex.c ****     (void)UART_Start_Receive_IT(huart, pData, Size);
 692:Drivers/STM32L0xx_HAL_Driver/Src/stm32l0xx_hal_uart_ex.c **** 
 693:Drivers/STM32L0xx_HAL_Driver/Src/stm32l0xx_hal_uart_ex.c ****     if (huart->ReceptionType == HAL_UART_RECEPTION_TOIDLE)
 694:Drivers/STM32L0xx_HAL_Driver/Src/stm32l0xx_hal_uart_ex.c ****     {
 695:Drivers/STM32L0xx_HAL_Driver/Src/stm32l0xx_hal_uart_ex.c ****       __HAL_UART_CLEAR_FLAG(huart, UART_CLEAR_IDLEF);
 696:Drivers/STM32L0xx_HAL_Driver/Src/stm32l0xx_hal_uart_ex.c ****       ATOMIC_SET_BIT(huart->Instance->CR1, USART_CR1_IDLEIE);
 697:Drivers/STM32L0xx_HAL_Driver/Src/stm32l0xx_hal_uart_ex.c ****     }
 698:Drivers/STM32L0xx_HAL_Driver/Src/stm32l0xx_hal_uart_ex.c ****     else
 699:Drivers/STM32L0xx_HAL_Driver/Src/stm32l0xx_hal_uart_ex.c ****     {
 700:Drivers/STM32L0xx_HAL_Driver/Src/stm32l0xx_hal_uart_ex.c ****       /* In case of errors already pending when reception is started,
 701:Drivers/STM32L0xx_HAL_Driver/Src/stm32l0xx_hal_uart_ex.c ****          Interrupts may have already been raised and lead to reception abortion.
 702:Drivers/STM32L0xx_HAL_Driver/Src/stm32l0xx_hal_uart_ex.c ****          (Overrun error for instance).
 703:Drivers/STM32L0xx_HAL_Driver/Src/stm32l0xx_hal_uart_ex.c ****          In such case Reception Type has been reset to HAL_UART_RECEPTION_STANDARD. */
 704:Drivers/STM32L0xx_HAL_Driver/Src/stm32l0xx_hal_uart_ex.c ****       status = HAL_ERROR;
 705:Drivers/STM32L0xx_HAL_Driver/Src/stm32l0xx_hal_uart_ex.c ****     }
 706:Drivers/STM32L0xx_HAL_Driver/Src/stm32l0xx_hal_uart_ex.c **** 
 707:Drivers/STM32L0xx_HAL_Driver/Src/stm32l0xx_hal_uart_ex.c ****     return status;
 708:Drivers/STM32L0xx_HAL_Driver/Src/stm32l0xx_hal_uart_ex.c ****   }
 709:Drivers/STM32L0xx_HAL_Driver/Src/stm32l0xx_hal_uart_ex.c ****   else
 710:Drivers/STM32L0xx_HAL_Driver/Src/stm32l0xx_hal_uart_ex.c ****   {
 711:Drivers/STM32L0xx_HAL_Driver/Src/stm32l0xx_hal_uart_ex.c ****     return HAL_BUSY;
 712:Drivers/STM32L0xx_HAL_Driver/Src/stm32l0xx_hal_uart_ex.c ****   }
 713:Drivers/STM32L0xx_HAL_Driver/Src/stm32l0xx_hal_uart_ex.c **** }
 714:Drivers/STM32L0xx_HAL_Driver/Src/stm32l0xx_hal_uart_ex.c **** 
 715:Drivers/STM32L0xx_HAL_Driver/Src/stm32l0xx_hal_uart_ex.c **** /**
 716:Drivers/STM32L0xx_HAL_Driver/Src/stm32l0xx_hal_uart_ex.c ****   * @brief Receive an amount of data in DMA mode till either the expected number
ARM GAS  C:\Users\lzh\AppData\Local\Temp\cckGfb7j.s 			page 14


 717:Drivers/STM32L0xx_HAL_Driver/Src/stm32l0xx_hal_uart_ex.c ****   *        of data is received or an IDLE event occurs.
 718:Drivers/STM32L0xx_HAL_Driver/Src/stm32l0xx_hal_uart_ex.c ****   * @note  Reception is initiated by this function call. Further progress of reception is achieved 
 719:Drivers/STM32L0xx_HAL_Driver/Src/stm32l0xx_hal_uart_ex.c ****   *        to DMA services, transferring automatically received data elements in user reception buf
 720:Drivers/STM32L0xx_HAL_Driver/Src/stm32l0xx_hal_uart_ex.c ****   *        calling registered callbacks at half/end of reception. UART IDLE events are also used to
 721:Drivers/STM32L0xx_HAL_Driver/Src/stm32l0xx_hal_uart_ex.c ****   *        reception phase as ended. In all cases, callback execution will indicate number of recei
 722:Drivers/STM32L0xx_HAL_Driver/Src/stm32l0xx_hal_uart_ex.c ****   * @note  When the UART parity is enabled (PCE = 1), the received data contain
 723:Drivers/STM32L0xx_HAL_Driver/Src/stm32l0xx_hal_uart_ex.c ****   *        the parity bit (MSB position).
 724:Drivers/STM32L0xx_HAL_Driver/Src/stm32l0xx_hal_uart_ex.c ****   * @note  When UART parity is not enabled (PCE = 0), and Word Length is configured to 9 bits (M1-M
 725:Drivers/STM32L0xx_HAL_Driver/Src/stm32l0xx_hal_uart_ex.c ****   *        the received data is handled as a set of uint16_t. In this case, Size must indicate the 
 726:Drivers/STM32L0xx_HAL_Driver/Src/stm32l0xx_hal_uart_ex.c ****   *        of uint16_t available through pData.
 727:Drivers/STM32L0xx_HAL_Driver/Src/stm32l0xx_hal_uart_ex.c ****   * @note  When UART parity is not enabled (PCE = 0), and Word Length is configured to 9 bits (M1-M
 728:Drivers/STM32L0xx_HAL_Driver/Src/stm32l0xx_hal_uart_ex.c ****   *        address of user data buffer for storing data to be received, should be aligned on a half
 729:Drivers/STM32L0xx_HAL_Driver/Src/stm32l0xx_hal_uart_ex.c ****   *        (16 bits) (as received data will be handled by DMA from halfword frontier). Depending on
 730:Drivers/STM32L0xx_HAL_Driver/Src/stm32l0xx_hal_uart_ex.c ****   *        use of specific alignment compilation directives or pragmas might be required
 731:Drivers/STM32L0xx_HAL_Driver/Src/stm32l0xx_hal_uart_ex.c ****   *        to ensure proper alignment for pData.
 732:Drivers/STM32L0xx_HAL_Driver/Src/stm32l0xx_hal_uart_ex.c ****   * @param huart UART handle.
 733:Drivers/STM32L0xx_HAL_Driver/Src/stm32l0xx_hal_uart_ex.c ****   * @param pData Pointer to data buffer (uint8_t or uint16_t data elements).
 734:Drivers/STM32L0xx_HAL_Driver/Src/stm32l0xx_hal_uart_ex.c ****   * @param Size  Amount of data elements (uint8_t or uint16_t) to be received.
 735:Drivers/STM32L0xx_HAL_Driver/Src/stm32l0xx_hal_uart_ex.c ****   * @retval HAL status
 736:Drivers/STM32L0xx_HAL_Driver/Src/stm32l0xx_hal_uart_ex.c ****   */
 737:Drivers/STM32L0xx_HAL_Driver/Src/stm32l0xx_hal_uart_ex.c **** HAL_StatusTypeDef HAL_UARTEx_ReceiveToIdle_DMA(UART_HandleTypeDef *huart, uint8_t *pData, uint16_t 
 738:Drivers/STM32L0xx_HAL_Driver/Src/stm32l0xx_hal_uart_ex.c **** {
 739:Drivers/STM32L0xx_HAL_Driver/Src/stm32l0xx_hal_uart_ex.c ****   HAL_StatusTypeDef status;
 740:Drivers/STM32L0xx_HAL_Driver/Src/stm32l0xx_hal_uart_ex.c **** 
 741:Drivers/STM32L0xx_HAL_Driver/Src/stm32l0xx_hal_uart_ex.c ****   /* Check that a Rx process is not already ongoing */
 742:Drivers/STM32L0xx_HAL_Driver/Src/stm32l0xx_hal_uart_ex.c ****   if (huart->RxState == HAL_UART_STATE_READY)
 743:Drivers/STM32L0xx_HAL_Driver/Src/stm32l0xx_hal_uart_ex.c ****   {
 744:Drivers/STM32L0xx_HAL_Driver/Src/stm32l0xx_hal_uart_ex.c ****     if ((pData == NULL) || (Size == 0U))
 745:Drivers/STM32L0xx_HAL_Driver/Src/stm32l0xx_hal_uart_ex.c ****     {
 746:Drivers/STM32L0xx_HAL_Driver/Src/stm32l0xx_hal_uart_ex.c ****       return HAL_ERROR;
 747:Drivers/STM32L0xx_HAL_Driver/Src/stm32l0xx_hal_uart_ex.c ****     }
 748:Drivers/STM32L0xx_HAL_Driver/Src/stm32l0xx_hal_uart_ex.c **** 
 749:Drivers/STM32L0xx_HAL_Driver/Src/stm32l0xx_hal_uart_ex.c ****     /* In case of 9bits/No Parity transfer, pData buffer provided as input parameter
 750:Drivers/STM32L0xx_HAL_Driver/Src/stm32l0xx_hal_uart_ex.c ****        should be aligned on a uint16_t frontier, as data copy from RDR will be
 751:Drivers/STM32L0xx_HAL_Driver/Src/stm32l0xx_hal_uart_ex.c ****        handled by DMA from a uint16_t frontier. */
 752:Drivers/STM32L0xx_HAL_Driver/Src/stm32l0xx_hal_uart_ex.c ****     if ((huart->Init.WordLength == UART_WORDLENGTH_9B) && (huart->Init.Parity == UART_PARITY_NONE))
 753:Drivers/STM32L0xx_HAL_Driver/Src/stm32l0xx_hal_uart_ex.c ****     {
 754:Drivers/STM32L0xx_HAL_Driver/Src/stm32l0xx_hal_uart_ex.c ****       if ((((uint32_t)pData) & 1U) != 0U)
 755:Drivers/STM32L0xx_HAL_Driver/Src/stm32l0xx_hal_uart_ex.c ****       {
 756:Drivers/STM32L0xx_HAL_Driver/Src/stm32l0xx_hal_uart_ex.c ****         return  HAL_ERROR;
 757:Drivers/STM32L0xx_HAL_Driver/Src/stm32l0xx_hal_uart_ex.c ****       }
 758:Drivers/STM32L0xx_HAL_Driver/Src/stm32l0xx_hal_uart_ex.c ****     }
 759:Drivers/STM32L0xx_HAL_Driver/Src/stm32l0xx_hal_uart_ex.c **** 
 760:Drivers/STM32L0xx_HAL_Driver/Src/stm32l0xx_hal_uart_ex.c ****     /* Set Reception type to reception till IDLE Event*/
 761:Drivers/STM32L0xx_HAL_Driver/Src/stm32l0xx_hal_uart_ex.c ****     huart->ReceptionType = HAL_UART_RECEPTION_TOIDLE;
 762:Drivers/STM32L0xx_HAL_Driver/Src/stm32l0xx_hal_uart_ex.c ****     huart->RxEventType = HAL_UART_RXEVENT_TC;
 763:Drivers/STM32L0xx_HAL_Driver/Src/stm32l0xx_hal_uart_ex.c **** 
 764:Drivers/STM32L0xx_HAL_Driver/Src/stm32l0xx_hal_uart_ex.c ****     status =  UART_Start_Receive_DMA(huart, pData, Size);
 765:Drivers/STM32L0xx_HAL_Driver/Src/stm32l0xx_hal_uart_ex.c **** 
 766:Drivers/STM32L0xx_HAL_Driver/Src/stm32l0xx_hal_uart_ex.c ****     /* Check Rx process has been successfully started */
 767:Drivers/STM32L0xx_HAL_Driver/Src/stm32l0xx_hal_uart_ex.c ****     if (status == HAL_OK)
 768:Drivers/STM32L0xx_HAL_Driver/Src/stm32l0xx_hal_uart_ex.c ****     {
 769:Drivers/STM32L0xx_HAL_Driver/Src/stm32l0xx_hal_uart_ex.c ****       if (huart->ReceptionType == HAL_UART_RECEPTION_TOIDLE)
 770:Drivers/STM32L0xx_HAL_Driver/Src/stm32l0xx_hal_uart_ex.c ****       {
 771:Drivers/STM32L0xx_HAL_Driver/Src/stm32l0xx_hal_uart_ex.c ****         __HAL_UART_CLEAR_FLAG(huart, UART_CLEAR_IDLEF);
 772:Drivers/STM32L0xx_HAL_Driver/Src/stm32l0xx_hal_uart_ex.c ****         ATOMIC_SET_BIT(huart->Instance->CR1, USART_CR1_IDLEIE);
 773:Drivers/STM32L0xx_HAL_Driver/Src/stm32l0xx_hal_uart_ex.c ****       }
ARM GAS  C:\Users\lzh\AppData\Local\Temp\cckGfb7j.s 			page 15


 774:Drivers/STM32L0xx_HAL_Driver/Src/stm32l0xx_hal_uart_ex.c ****       else
 775:Drivers/STM32L0xx_HAL_Driver/Src/stm32l0xx_hal_uart_ex.c ****       {
 776:Drivers/STM32L0xx_HAL_Driver/Src/stm32l0xx_hal_uart_ex.c ****         /* In case of errors already pending when reception is started,
 777:Drivers/STM32L0xx_HAL_Driver/Src/stm32l0xx_hal_uart_ex.c ****            Interrupts may have already been raised and lead to reception abortion.
 778:Drivers/STM32L0xx_HAL_Driver/Src/stm32l0xx_hal_uart_ex.c ****            (Overrun error for instance).
 779:Drivers/STM32L0xx_HAL_Driver/Src/stm32l0xx_hal_uart_ex.c ****            In such case Reception Type has been reset to HAL_UART_RECEPTION_STANDARD. */
 780:Drivers/STM32L0xx_HAL_Driver/Src/stm32l0xx_hal_uart_ex.c ****         status = HAL_ERROR;
 781:Drivers/STM32L0xx_HAL_Driver/Src/stm32l0xx_hal_uart_ex.c ****       }
 782:Drivers/STM32L0xx_HAL_Driver/Src/stm32l0xx_hal_uart_ex.c ****     }
 783:Drivers/STM32L0xx_HAL_Driver/Src/stm32l0xx_hal_uart_ex.c **** 
 784:Drivers/STM32L0xx_HAL_Driver/Src/stm32l0xx_hal_uart_ex.c ****     return status;
 785:Drivers/STM32L0xx_HAL_Driver/Src/stm32l0xx_hal_uart_ex.c ****   }
 786:Drivers/STM32L0xx_HAL_Driver/Src/stm32l0xx_hal_uart_ex.c ****   else
 787:Drivers/STM32L0xx_HAL_Driver/Src/stm32l0xx_hal_uart_ex.c ****   {
 788:Drivers/STM32L0xx_HAL_Driver/Src/stm32l0xx_hal_uart_ex.c ****     return HAL_BUSY;
 789:Drivers/STM32L0xx_HAL_Driver/Src/stm32l0xx_hal_uart_ex.c ****   }
 790:Drivers/STM32L0xx_HAL_Driver/Src/stm32l0xx_hal_uart_ex.c **** }
 791:Drivers/STM32L0xx_HAL_Driver/Src/stm32l0xx_hal_uart_ex.c **** 
 792:Drivers/STM32L0xx_HAL_Driver/Src/stm32l0xx_hal_uart_ex.c **** /**
 793:Drivers/STM32L0xx_HAL_Driver/Src/stm32l0xx_hal_uart_ex.c ****   * @brief Provide Rx Event type that has lead to RxEvent callback execution.
 794:Drivers/STM32L0xx_HAL_Driver/Src/stm32l0xx_hal_uart_ex.c ****   * @note  When HAL_UARTEx_ReceiveToIdle_IT() or HAL_UARTEx_ReceiveToIdle_DMA() API are called, pro
 795:Drivers/STM32L0xx_HAL_Driver/Src/stm32l0xx_hal_uart_ex.c ****   *        of reception process is provided to application through calls of Rx Event callback (eith
 796:Drivers/STM32L0xx_HAL_Driver/Src/stm32l0xx_hal_uart_ex.c ****   *        HAL_UARTEx_RxEventCallback() or user registered one). As several types of events could o
 797:Drivers/STM32L0xx_HAL_Driver/Src/stm32l0xx_hal_uart_ex.c ****   *        Half Transfer, or Transfer Complete), this function allows to retrieve the Rx Event type
 798:Drivers/STM32L0xx_HAL_Driver/Src/stm32l0xx_hal_uart_ex.c ****   *        to Rx Event callback execution.
 799:Drivers/STM32L0xx_HAL_Driver/Src/stm32l0xx_hal_uart_ex.c ****   * @note  This function is expected to be called within the user implementation of Rx Event Callba
 800:Drivers/STM32L0xx_HAL_Driver/Src/stm32l0xx_hal_uart_ex.c ****   *        in order to provide the accurate value.
 801:Drivers/STM32L0xx_HAL_Driver/Src/stm32l0xx_hal_uart_ex.c ****   * @note  In Interrupt Mode:
 802:Drivers/STM32L0xx_HAL_Driver/Src/stm32l0xx_hal_uart_ex.c ****   *        - HAL_UART_RXEVENT_TC : when Reception has been completed (expected nb of data has been 
 803:Drivers/STM32L0xx_HAL_Driver/Src/stm32l0xx_hal_uart_ex.c ****   *        - HAL_UART_RXEVENT_IDLE : when Idle event occurred prior reception has been completed.
 804:Drivers/STM32L0xx_HAL_Driver/Src/stm32l0xx_hal_uart_ex.c ****   * @note  In DMA Mode:
 805:Drivers/STM32L0xx_HAL_Driver/Src/stm32l0xx_hal_uart_ex.c ****   *        - HAL_UART_RXEVENT_TC : when Reception has been completed (expected nb of data has been 
 806:Drivers/STM32L0xx_HAL_Driver/Src/stm32l0xx_hal_uart_ex.c ****   *        - HAL_UART_RXEVENT_HT : when half of expected nb of data has been received.
 807:Drivers/STM32L0xx_HAL_Driver/Src/stm32l0xx_hal_uart_ex.c ****   *        - HAL_UART_RXEVENT_IDLE : when Idle event occurred prior reception has been completed.
 808:Drivers/STM32L0xx_HAL_Driver/Src/stm32l0xx_hal_uart_ex.c ****   * @note  In DMA mode, RxEvent callback could be called several times;
 809:Drivers/STM32L0xx_HAL_Driver/Src/stm32l0xx_hal_uart_ex.c ****   *        When DMA is configured in Normal Mode, HT event does not stop Reception process;
 810:Drivers/STM32L0xx_HAL_Driver/Src/stm32l0xx_hal_uart_ex.c ****   *        When DMA is configured in Circular Mode, HT, TC or IDLE events don't stop Reception proc
 811:Drivers/STM32L0xx_HAL_Driver/Src/stm32l0xx_hal_uart_ex.c ****   * @param  huart UART handle.
 812:Drivers/STM32L0xx_HAL_Driver/Src/stm32l0xx_hal_uart_ex.c ****   * @retval Rx Event Type (return vale will be a value of @ref UART_RxEvent_Type_Values)
 813:Drivers/STM32L0xx_HAL_Driver/Src/stm32l0xx_hal_uart_ex.c ****   */
 814:Drivers/STM32L0xx_HAL_Driver/Src/stm32l0xx_hal_uart_ex.c **** HAL_UART_RxEventTypeTypeDef HAL_UARTEx_GetRxEventType(const UART_HandleTypeDef *huart)
 815:Drivers/STM32L0xx_HAL_Driver/Src/stm32l0xx_hal_uart_ex.c **** {
 816:Drivers/STM32L0xx_HAL_Driver/Src/stm32l0xx_hal_uart_ex.c ****   /* Return Rx Event type value, as stored in UART handle */
 817:Drivers/STM32L0xx_HAL_Driver/Src/stm32l0xx_hal_uart_ex.c ****   return (huart->RxEventType);
 818:Drivers/STM32L0xx_HAL_Driver/Src/stm32l0xx_hal_uart_ex.c **** }
 819:Drivers/STM32L0xx_HAL_Driver/Src/stm32l0xx_hal_uart_ex.c **** 
 820:Drivers/STM32L0xx_HAL_Driver/Src/stm32l0xx_hal_uart_ex.c **** /**
 821:Drivers/STM32L0xx_HAL_Driver/Src/stm32l0xx_hal_uart_ex.c ****   * @}
 822:Drivers/STM32L0xx_HAL_Driver/Src/stm32l0xx_hal_uart_ex.c ****   */
 823:Drivers/STM32L0xx_HAL_Driver/Src/stm32l0xx_hal_uart_ex.c **** 
 824:Drivers/STM32L0xx_HAL_Driver/Src/stm32l0xx_hal_uart_ex.c **** /**
 825:Drivers/STM32L0xx_HAL_Driver/Src/stm32l0xx_hal_uart_ex.c ****   * @}
 826:Drivers/STM32L0xx_HAL_Driver/Src/stm32l0xx_hal_uart_ex.c ****   */
 827:Drivers/STM32L0xx_HAL_Driver/Src/stm32l0xx_hal_uart_ex.c **** 
 828:Drivers/STM32L0xx_HAL_Driver/Src/stm32l0xx_hal_uart_ex.c **** /** @addtogroup UARTEx_Private_Functions
 829:Drivers/STM32L0xx_HAL_Driver/Src/stm32l0xx_hal_uart_ex.c ****   * @{
 830:Drivers/STM32L0xx_HAL_Driver/Src/stm32l0xx_hal_uart_ex.c ****   */
ARM GAS  C:\Users\lzh\AppData\Local\Temp\cckGfb7j.s 			page 16


 831:Drivers/STM32L0xx_HAL_Driver/Src/stm32l0xx_hal_uart_ex.c **** 
 832:Drivers/STM32L0xx_HAL_Driver/Src/stm32l0xx_hal_uart_ex.c **** /**
 833:Drivers/STM32L0xx_HAL_Driver/Src/stm32l0xx_hal_uart_ex.c ****   * @brief Initialize the UART wake-up from stop mode parameters when triggered by address detectio
 834:Drivers/STM32L0xx_HAL_Driver/Src/stm32l0xx_hal_uart_ex.c ****   * @param huart           UART handle.
 835:Drivers/STM32L0xx_HAL_Driver/Src/stm32l0xx_hal_uart_ex.c ****   * @param WakeUpSelection UART wake up from stop mode parameters.
 836:Drivers/STM32L0xx_HAL_Driver/Src/stm32l0xx_hal_uart_ex.c ****   * @retval None
 837:Drivers/STM32L0xx_HAL_Driver/Src/stm32l0xx_hal_uart_ex.c ****   */
 838:Drivers/STM32L0xx_HAL_Driver/Src/stm32l0xx_hal_uart_ex.c **** static void UARTEx_Wakeup_AddressConfig(UART_HandleTypeDef *huart, UART_WakeUpTypeDef WakeUpSelecti
 839:Drivers/STM32L0xx_HAL_Driver/Src/stm32l0xx_hal_uart_ex.c **** {
  27              		.loc 1 839 1 view -0
  28              		.cfi_startproc
  29              		@ args = 0, pretend = 0, frame = 8
  30              		@ frame_needed = 0, uses_anonymous_args = 0
  31              		@ link register save eliminated.
  32              		.loc 1 839 1 is_stmt 0 view .LVU1
  33 0000 82B0     		sub	sp, sp, #8
  34              		.cfi_def_cfa_offset 8
  35 0002 0091     		str	r1, [sp]
  36 0004 0192     		str	r2, [sp, #4]
 840:Drivers/STM32L0xx_HAL_Driver/Src/stm32l0xx_hal_uart_ex.c ****   assert_param(IS_UART_ADDRESSLENGTH_DETECT(WakeUpSelection.AddressLength));
  37              		.loc 1 840 3 is_stmt 1 view .LVU2
 841:Drivers/STM32L0xx_HAL_Driver/Src/stm32l0xx_hal_uart_ex.c **** 
 842:Drivers/STM32L0xx_HAL_Driver/Src/stm32l0xx_hal_uart_ex.c ****   /* Set the USART address length */
 843:Drivers/STM32L0xx_HAL_Driver/Src/stm32l0xx_hal_uart_ex.c ****   MODIFY_REG(huart->Instance->CR2, USART_CR2_ADDM7, WakeUpSelection.AddressLength);
  38              		.loc 1 843 3 view .LVU3
  39 0006 0268     		ldr	r2, [r0]
  40 0008 5368     		ldr	r3, [r2, #4]
  41 000a 1021     		movs	r1, #16
  42 000c 8B43     		bics	r3, r1
  43 000e 6946     		mov	r1, sp
  44 0010 8988     		ldrh	r1, [r1, #4]
  45 0012 0B43     		orrs	r3, r1
  46 0014 5360     		str	r3, [r2, #4]
 844:Drivers/STM32L0xx_HAL_Driver/Src/stm32l0xx_hal_uart_ex.c **** 
 845:Drivers/STM32L0xx_HAL_Driver/Src/stm32l0xx_hal_uart_ex.c ****   /* Set the USART address node */
 846:Drivers/STM32L0xx_HAL_Driver/Src/stm32l0xx_hal_uart_ex.c ****   MODIFY_REG(huart->Instance->CR2, USART_CR2_ADD, ((uint32_t)WakeUpSelection.Address << UART_CR2_AD
  47              		.loc 1 846 3 view .LVU4
  48 0016 0168     		ldr	r1, [r0]
  49 0018 4B68     		ldr	r3, [r1, #4]
  50 001a 1B02     		lsls	r3, r3, #8
  51 001c 1B0A     		lsrs	r3, r3, #8
  52 001e 6A46     		mov	r2, sp
  53 0020 9279     		ldrb	r2, [r2, #6]
  54 0022 1206     		lsls	r2, r2, #24
  55 0024 1343     		orrs	r3, r2
  56 0026 4B60     		str	r3, [r1, #4]
 847:Drivers/STM32L0xx_HAL_Driver/Src/stm32l0xx_hal_uart_ex.c **** }
  57              		.loc 1 847 1 is_stmt 0 view .LVU5
  58 0028 02B0     		add	sp, sp, #8
  59              		@ sp needed
  60 002a 7047     		bx	lr
  61              		.cfi_endproc
  62              	.LFE52:
  64              		.section	.text.HAL_RS485Ex_Init,"ax",%progbits
  65              		.align	1
  66              		.global	HAL_RS485Ex_Init
  67              		.syntax unified
ARM GAS  C:\Users\lzh\AppData\Local\Temp\cckGfb7j.s 			page 17


  68              		.code	16
  69              		.thumb_func
  71              	HAL_RS485Ex_Init:
  72              	.LVL1:
  73              	.LFB40:
 150:Drivers/STM32L0xx_HAL_Driver/Src/stm32l0xx_hal_uart_ex.c ****   uint32_t temp;
  74              		.loc 1 150 1 is_stmt 1 view -0
  75              		.cfi_startproc
  76              		@ args = 0, pretend = 0, frame = 0
  77              		@ frame_needed = 0, uses_anonymous_args = 0
 150:Drivers/STM32L0xx_HAL_Driver/Src/stm32l0xx_hal_uart_ex.c ****   uint32_t temp;
  78              		.loc 1 150 1 is_stmt 0 view .LVU7
  79 0000 F8B5     		push	{r3, r4, r5, r6, r7, lr}
  80              		.cfi_def_cfa_offset 24
  81              		.cfi_offset 3, -24
  82              		.cfi_offset 4, -20
  83              		.cfi_offset 5, -16
  84              		.cfi_offset 6, -12
  85              		.cfi_offset 7, -8
  86              		.cfi_offset 14, -4
  87 0002 0400     		movs	r4, r0
  88 0004 0F00     		movs	r7, r1
  89 0006 1600     		movs	r6, r2
  90 0008 1D00     		movs	r5, r3
 151:Drivers/STM32L0xx_HAL_Driver/Src/stm32l0xx_hal_uart_ex.c **** 
  91              		.loc 1 151 3 is_stmt 1 view .LVU8
 154:Drivers/STM32L0xx_HAL_Driver/Src/stm32l0xx_hal_uart_ex.c ****   {
  92              		.loc 1 154 3 view .LVU9
 154:Drivers/STM32L0xx_HAL_Driver/Src/stm32l0xx_hal_uart_ex.c ****   {
  93              		.loc 1 154 6 is_stmt 0 view .LVU10
  94 000a 0028     		cmp	r0, #0
  95 000c 39D0     		beq	.L6
 159:Drivers/STM32L0xx_HAL_Driver/Src/stm32l0xx_hal_uart_ex.c **** 
  96              		.loc 1 159 3 is_stmt 1 view .LVU11
 162:Drivers/STM32L0xx_HAL_Driver/Src/stm32l0xx_hal_uart_ex.c **** 
  97              		.loc 1 162 3 view .LVU12
 165:Drivers/STM32L0xx_HAL_Driver/Src/stm32l0xx_hal_uart_ex.c **** 
  98              		.loc 1 165 3 view .LVU13
 168:Drivers/STM32L0xx_HAL_Driver/Src/stm32l0xx_hal_uart_ex.c **** 
  99              		.loc 1 168 3 view .LVU14
 170:Drivers/STM32L0xx_HAL_Driver/Src/stm32l0xx_hal_uart_ex.c ****   {
 100              		.loc 1 170 3 view .LVU15
 170:Drivers/STM32L0xx_HAL_Driver/Src/stm32l0xx_hal_uart_ex.c ****   {
 101              		.loc 1 170 12 is_stmt 0 view .LVU16
 102 000e C36F     		ldr	r3, [r0, #124]
 103              	.LVL2:
 170:Drivers/STM32L0xx_HAL_Driver/Src/stm32l0xx_hal_uart_ex.c ****   {
 104              		.loc 1 170 6 view .LVU17
 105 0010 002B     		cmp	r3, #0
 106 0012 2CD0     		beq	.L7
 107              	.LVL3:
 108              	.L4:
 191:Drivers/STM32L0xx_HAL_Driver/Src/stm32l0xx_hal_uart_ex.c **** 
 109              		.loc 1 191 3 is_stmt 1 view .LVU18
 191:Drivers/STM32L0xx_HAL_Driver/Src/stm32l0xx_hal_uart_ex.c **** 
 110              		.loc 1 191 17 is_stmt 0 view .LVU19
 111 0014 2423     		movs	r3, #36
ARM GAS  C:\Users\lzh\AppData\Local\Temp\cckGfb7j.s 			page 18


 112 0016 E367     		str	r3, [r4, #124]
 194:Drivers/STM32L0xx_HAL_Driver/Src/stm32l0xx_hal_uart_ex.c **** 
 113              		.loc 1 194 3 is_stmt 1 view .LVU20
 114 0018 2268     		ldr	r2, [r4]
 115 001a 1368     		ldr	r3, [r2]
 116 001c 0121     		movs	r1, #1
 117 001e 8B43     		bics	r3, r1
 118 0020 1360     		str	r3, [r2]
 198:Drivers/STM32L0xx_HAL_Driver/Src/stm32l0xx_hal_uart_ex.c ****   {
 119              		.loc 1 198 3 view .LVU21
 198:Drivers/STM32L0xx_HAL_Driver/Src/stm32l0xx_hal_uart_ex.c ****   {
 120              		.loc 1 198 26 is_stmt 0 view .LVU22
 121 0022 636A     		ldr	r3, [r4, #36]
 198:Drivers/STM32L0xx_HAL_Driver/Src/stm32l0xx_hal_uart_ex.c ****   {
 122              		.loc 1 198 6 view .LVU23
 123 0024 002B     		cmp	r3, #0
 124 0026 28D1     		bne	.L8
 125              	.L5:
 204:Drivers/STM32L0xx_HAL_Driver/Src/stm32l0xx_hal_uart_ex.c ****   {
 126              		.loc 1 204 3 is_stmt 1 view .LVU24
 204:Drivers/STM32L0xx_HAL_Driver/Src/stm32l0xx_hal_uart_ex.c ****   {
 127              		.loc 1 204 7 is_stmt 0 view .LVU25
 128 0028 2000     		movs	r0, r4
 129 002a FFF7FEFF 		bl	UART_SetConfig
 130              	.LVL4:
 204:Drivers/STM32L0xx_HAL_Driver/Src/stm32l0xx_hal_uart_ex.c ****   {
 131              		.loc 1 204 6 view .LVU26
 132 002e 0128     		cmp	r0, #1
 133 0030 1CD0     		beq	.L3
 210:Drivers/STM32L0xx_HAL_Driver/Src/stm32l0xx_hal_uart_ex.c **** 
 134              		.loc 1 210 3 is_stmt 1 view .LVU27
 135 0032 2268     		ldr	r2, [r4]
 136 0034 9168     		ldr	r1, [r2, #8]
 137 0036 8023     		movs	r3, #128
 138 0038 DB01     		lsls	r3, r3, #7
 139 003a 0B43     		orrs	r3, r1
 140 003c 9360     		str	r3, [r2, #8]
 213:Drivers/STM32L0xx_HAL_Driver/Src/stm32l0xx_hal_uart_ex.c **** 
 141              		.loc 1 213 3 view .LVU28
 142 003e 2268     		ldr	r2, [r4]
 143 0040 9368     		ldr	r3, [r2, #8]
 144 0042 1149     		ldr	r1, .L9
 145 0044 0B40     		ands	r3, r1
 146 0046 3B43     		orrs	r3, r7
 147 0048 9360     		str	r3, [r2, #8]
 216:Drivers/STM32L0xx_HAL_Driver/Src/stm32l0xx_hal_uart_ex.c ****   temp |= (DeassertionTime << UART_CR1_DEDT_ADDRESS_LSB_POS);
 148              		.loc 1 216 3 view .LVU29
 216:Drivers/STM32L0xx_HAL_Driver/Src/stm32l0xx_hal_uart_ex.c ****   temp |= (DeassertionTime << UART_CR1_DEDT_ADDRESS_LSB_POS);
 149              		.loc 1 216 8 is_stmt 0 view .LVU30
 150 004a 7605     		lsls	r6, r6, #21
 151              	.LVL5:
 217:Drivers/STM32L0xx_HAL_Driver/Src/stm32l0xx_hal_uart_ex.c ****   MODIFY_REG(huart->Instance->CR1, (USART_CR1_DEDT | USART_CR1_DEAT), temp);
 152              		.loc 1 217 3 is_stmt 1 view .LVU31
 217:Drivers/STM32L0xx_HAL_Driver/Src/stm32l0xx_hal_uart_ex.c ****   MODIFY_REG(huart->Instance->CR1, (USART_CR1_DEDT | USART_CR1_DEAT), temp);
 153              		.loc 1 217 28 is_stmt 0 view .LVU32
 154 004c 2D04     		lsls	r5, r5, #16
 155              	.LVL6:
ARM GAS  C:\Users\lzh\AppData\Local\Temp\cckGfb7j.s 			page 19


 217:Drivers/STM32L0xx_HAL_Driver/Src/stm32l0xx_hal_uart_ex.c ****   MODIFY_REG(huart->Instance->CR1, (USART_CR1_DEDT | USART_CR1_DEAT), temp);
 156              		.loc 1 217 8 view .LVU33
 157 004e 3543     		orrs	r5, r6
 158              	.LVL7:
 218:Drivers/STM32L0xx_HAL_Driver/Src/stm32l0xx_hal_uart_ex.c **** 
 159              		.loc 1 218 3 is_stmt 1 view .LVU34
 160 0050 2268     		ldr	r2, [r4]
 161 0052 1368     		ldr	r3, [r2]
 162 0054 0D49     		ldr	r1, .L9+4
 163 0056 0B40     		ands	r3, r1
 164 0058 2B43     		orrs	r3, r5
 165 005a 1360     		str	r3, [r2]
 221:Drivers/STM32L0xx_HAL_Driver/Src/stm32l0xx_hal_uart_ex.c **** 
 166              		.loc 1 221 3 view .LVU35
 167 005c 2268     		ldr	r2, [r4]
 168 005e 1368     		ldr	r3, [r2]
 169 0060 0121     		movs	r1, #1
 170 0062 0B43     		orrs	r3, r1
 171 0064 1360     		str	r3, [r2]
 224:Drivers/STM32L0xx_HAL_Driver/Src/stm32l0xx_hal_uart_ex.c **** }
 172              		.loc 1 224 3 view .LVU36
 224:Drivers/STM32L0xx_HAL_Driver/Src/stm32l0xx_hal_uart_ex.c **** }
 173              		.loc 1 224 11 is_stmt 0 view .LVU37
 174 0066 2000     		movs	r0, r4
 175 0068 FFF7FEFF 		bl	UART_CheckIdleState
 176              	.LVL8:
 177              	.L3:
 225:Drivers/STM32L0xx_HAL_Driver/Src/stm32l0xx_hal_uart_ex.c **** 
 178              		.loc 1 225 1 view .LVU38
 179              		@ sp needed
 180              	.LVL9:
 181              	.LVL10:
 225:Drivers/STM32L0xx_HAL_Driver/Src/stm32l0xx_hal_uart_ex.c **** 
 182              		.loc 1 225 1 view .LVU39
 183 006c F8BD     		pop	{r3, r4, r5, r6, r7, pc}
 184              	.LVL11:
 185              	.L7:
 173:Drivers/STM32L0xx_HAL_Driver/Src/stm32l0xx_hal_uart_ex.c **** 
 186              		.loc 1 173 5 is_stmt 1 view .LVU40
 173:Drivers/STM32L0xx_HAL_Driver/Src/stm32l0xx_hal_uart_ex.c **** 
 187              		.loc 1 173 17 is_stmt 0 view .LVU41
 188 006e 7833     		adds	r3, r3, #120
 189 0070 0022     		movs	r2, #0
 190              	.LVL12:
 173:Drivers/STM32L0xx_HAL_Driver/Src/stm32l0xx_hal_uart_ex.c **** 
 191              		.loc 1 173 17 view .LVU42
 192 0072 C254     		strb	r2, [r0, r3]
 187:Drivers/STM32L0xx_HAL_Driver/Src/stm32l0xx_hal_uart_ex.c **** #endif /* (USE_HAL_UART_REGISTER_CALLBACKS) */
 193              		.loc 1 187 5 is_stmt 1 view .LVU43
 194 0074 FFF7FEFF 		bl	HAL_UART_MspInit
 195              	.LVL13:
 187:Drivers/STM32L0xx_HAL_Driver/Src/stm32l0xx_hal_uart_ex.c **** #endif /* (USE_HAL_UART_REGISTER_CALLBACKS) */
 196              		.loc 1 187 5 is_stmt 0 view .LVU44
 197 0078 CCE7     		b	.L4
 198              	.L8:
 200:Drivers/STM32L0xx_HAL_Driver/Src/stm32l0xx_hal_uart_ex.c ****   }
 199              		.loc 1 200 5 is_stmt 1 view .LVU45
ARM GAS  C:\Users\lzh\AppData\Local\Temp\cckGfb7j.s 			page 20


 200 007a 2000     		movs	r0, r4
 201 007c FFF7FEFF 		bl	UART_AdvFeatureConfig
 202              	.LVL14:
 203 0080 D2E7     		b	.L5
 204              	.LVL15:
 205              	.L6:
 156:Drivers/STM32L0xx_HAL_Driver/Src/stm32l0xx_hal_uart_ex.c ****   }
 206              		.loc 1 156 12 is_stmt 0 view .LVU46
 207 0082 0120     		movs	r0, #1
 208              	.LVL16:
 156:Drivers/STM32L0xx_HAL_Driver/Src/stm32l0xx_hal_uart_ex.c ****   }
 209              		.loc 1 156 12 view .LVU47
 210 0084 F2E7     		b	.L3
 211              	.L10:
 212 0086 C046     		.align	2
 213              	.L9:
 214 0088 FF7FFFFF 		.word	-32769
 215 008c FFFF00FC 		.word	-67043329
 216              		.cfi_endproc
 217              	.LFE40:
 219              		.section	.text.HAL_UARTEx_WakeupCallback,"ax",%progbits
 220              		.align	1
 221              		.weak	HAL_UARTEx_WakeupCallback
 222              		.syntax unified
 223              		.code	16
 224              		.thumb_func
 226              	HAL_UARTEx_WakeupCallback:
 227              	.LVL17:
 228              	.LFB41:
 252:Drivers/STM32L0xx_HAL_Driver/Src/stm32l0xx_hal_uart_ex.c ****   /* Prevent unused argument(s) compilation warning */
 229              		.loc 1 252 1 is_stmt 1 view -0
 230              		.cfi_startproc
 231              		@ args = 0, pretend = 0, frame = 0
 232              		@ frame_needed = 0, uses_anonymous_args = 0
 233              		@ link register save eliminated.
 254:Drivers/STM32L0xx_HAL_Driver/Src/stm32l0xx_hal_uart_ex.c **** 
 234              		.loc 1 254 3 view .LVU49
 259:Drivers/STM32L0xx_HAL_Driver/Src/stm32l0xx_hal_uart_ex.c **** 
 235              		.loc 1 259 1 is_stmt 0 view .LVU50
 236              		@ sp needed
 237 0000 7047     		bx	lr
 238              		.cfi_endproc
 239              	.LFE41:
 241              		.section	.text.HAL_UARTEx_EnableClockStopMode,"ax",%progbits
 242              		.align	1
 243              		.global	HAL_UARTEx_EnableClockStopMode
 244              		.syntax unified
 245              		.code	16
 246              		.thumb_func
 248              	HAL_UARTEx_EnableClockStopMode:
 249              	.LVL18:
 250              	.LFB42:
 332:Drivers/STM32L0xx_HAL_Driver/Src/stm32l0xx_hal_uart_ex.c ****   /* Process Locked */
 251              		.loc 1 332 1 is_stmt 1 view -0
 252              		.cfi_startproc
 253              		@ args = 0, pretend = 0, frame = 0
 254              		@ frame_needed = 0, uses_anonymous_args = 0
ARM GAS  C:\Users\lzh\AppData\Local\Temp\cckGfb7j.s 			page 21


 332:Drivers/STM32L0xx_HAL_Driver/Src/stm32l0xx_hal_uart_ex.c ****   /* Process Locked */
 255              		.loc 1 332 1 is_stmt 0 view .LVU52
 256 0000 10B5     		push	{r4, lr}
 257              		.cfi_def_cfa_offset 8
 258              		.cfi_offset 4, -8
 259              		.cfi_offset 14, -4
 334:Drivers/STM32L0xx_HAL_Driver/Src/stm32l0xx_hal_uart_ex.c **** 
 260              		.loc 1 334 3 is_stmt 1 view .LVU53
 334:Drivers/STM32L0xx_HAL_Driver/Src/stm32l0xx_hal_uart_ex.c **** 
 261              		.loc 1 334 3 view .LVU54
 262 0002 7823     		movs	r3, #120
 263 0004 C35C     		ldrb	r3, [r0, r3]
 264 0006 012B     		cmp	r3, #1
 265 0008 12D0     		beq	.L14
 334:Drivers/STM32L0xx_HAL_Driver/Src/stm32l0xx_hal_uart_ex.c **** 
 266              		.loc 1 334 3 discriminator 2 view .LVU55
 267 000a 7822     		movs	r2, #120
 268 000c 0123     		movs	r3, #1
 269 000e 8354     		strb	r3, [r0, r2]
 334:Drivers/STM32L0xx_HAL_Driver/Src/stm32l0xx_hal_uart_ex.c **** 
 270              		.loc 1 334 3 discriminator 2 view .LVU56
 337:Drivers/STM32L0xx_HAL_Driver/Src/stm32l0xx_hal_uart_ex.c **** 
 271              		.loc 1 337 3 discriminator 2 view .LVU57
 272              	.LBB44:
 337:Drivers/STM32L0xx_HAL_Driver/Src/stm32l0xx_hal_uart_ex.c **** 
 273              		.loc 1 337 3 discriminator 2 view .LVU58
 337:Drivers/STM32L0xx_HAL_Driver/Src/stm32l0xx_hal_uart_ex.c **** 
 274              		.loc 1 337 3 discriminator 2 view .LVU59
 275              	.LBB45:
 276              	.LBI45:
 277              		.file 2 "Drivers/CMSIS/Include/cmsis_gcc.h"
   1:Drivers/CMSIS/Include/cmsis_gcc.h **** /**************************************************************************//**
   2:Drivers/CMSIS/Include/cmsis_gcc.h ****  * @file     cmsis_gcc.h
   3:Drivers/CMSIS/Include/cmsis_gcc.h ****  * @brief    CMSIS compiler GCC header file
   4:Drivers/CMSIS/Include/cmsis_gcc.h ****  * @version  V5.0.4
   5:Drivers/CMSIS/Include/cmsis_gcc.h ****  * @date     09. April 2018
   6:Drivers/CMSIS/Include/cmsis_gcc.h ****  ******************************************************************************/
   7:Drivers/CMSIS/Include/cmsis_gcc.h **** /*
   8:Drivers/CMSIS/Include/cmsis_gcc.h ****  * Copyright (c) 2009-2018 Arm Limited. All rights reserved.
   9:Drivers/CMSIS/Include/cmsis_gcc.h ****  *
  10:Drivers/CMSIS/Include/cmsis_gcc.h ****  * SPDX-License-Identifier: Apache-2.0
  11:Drivers/CMSIS/Include/cmsis_gcc.h ****  *
  12:Drivers/CMSIS/Include/cmsis_gcc.h ****  * Licensed under the Apache License, Version 2.0 (the License); you may
  13:Drivers/CMSIS/Include/cmsis_gcc.h ****  * not use this file except in compliance with the License.
  14:Drivers/CMSIS/Include/cmsis_gcc.h ****  * You may obtain a copy of the License at
  15:Drivers/CMSIS/Include/cmsis_gcc.h ****  *
  16:Drivers/CMSIS/Include/cmsis_gcc.h ****  * www.apache.org/licenses/LICENSE-2.0
  17:Drivers/CMSIS/Include/cmsis_gcc.h ****  *
  18:Drivers/CMSIS/Include/cmsis_gcc.h ****  * Unless required by applicable law or agreed to in writing, software
  19:Drivers/CMSIS/Include/cmsis_gcc.h ****  * distributed under the License is distributed on an AS IS BASIS, WITHOUT
  20:Drivers/CMSIS/Include/cmsis_gcc.h ****  * WARRANTIES OR CONDITIONS OF ANY KIND, either express or implied.
  21:Drivers/CMSIS/Include/cmsis_gcc.h ****  * See the License for the specific language governing permissions and
  22:Drivers/CMSIS/Include/cmsis_gcc.h ****  * limitations under the License.
  23:Drivers/CMSIS/Include/cmsis_gcc.h ****  */
  24:Drivers/CMSIS/Include/cmsis_gcc.h **** 
  25:Drivers/CMSIS/Include/cmsis_gcc.h **** #ifndef __CMSIS_GCC_H
  26:Drivers/CMSIS/Include/cmsis_gcc.h **** #define __CMSIS_GCC_H
ARM GAS  C:\Users\lzh\AppData\Local\Temp\cckGfb7j.s 			page 22


  27:Drivers/CMSIS/Include/cmsis_gcc.h **** 
  28:Drivers/CMSIS/Include/cmsis_gcc.h **** /* ignore some GCC warnings */
  29:Drivers/CMSIS/Include/cmsis_gcc.h **** #pragma GCC diagnostic push
  30:Drivers/CMSIS/Include/cmsis_gcc.h **** #pragma GCC diagnostic ignored "-Wsign-conversion"
  31:Drivers/CMSIS/Include/cmsis_gcc.h **** #pragma GCC diagnostic ignored "-Wconversion"
  32:Drivers/CMSIS/Include/cmsis_gcc.h **** #pragma GCC diagnostic ignored "-Wunused-parameter"
  33:Drivers/CMSIS/Include/cmsis_gcc.h **** 
  34:Drivers/CMSIS/Include/cmsis_gcc.h **** /* Fallback for __has_builtin */
  35:Drivers/CMSIS/Include/cmsis_gcc.h **** #ifndef __has_builtin
  36:Drivers/CMSIS/Include/cmsis_gcc.h ****   #define __has_builtin(x) (0)
  37:Drivers/CMSIS/Include/cmsis_gcc.h **** #endif
  38:Drivers/CMSIS/Include/cmsis_gcc.h **** 
  39:Drivers/CMSIS/Include/cmsis_gcc.h **** /* CMSIS compiler specific defines */
  40:Drivers/CMSIS/Include/cmsis_gcc.h **** #ifndef   __ASM
  41:Drivers/CMSIS/Include/cmsis_gcc.h ****   #define __ASM                                  __asm
  42:Drivers/CMSIS/Include/cmsis_gcc.h **** #endif
  43:Drivers/CMSIS/Include/cmsis_gcc.h **** #ifndef   __INLINE
  44:Drivers/CMSIS/Include/cmsis_gcc.h ****   #define __INLINE                               inline
  45:Drivers/CMSIS/Include/cmsis_gcc.h **** #endif
  46:Drivers/CMSIS/Include/cmsis_gcc.h **** #ifndef   __STATIC_INLINE
  47:Drivers/CMSIS/Include/cmsis_gcc.h ****   #define __STATIC_INLINE                        static inline
  48:Drivers/CMSIS/Include/cmsis_gcc.h **** #endif
  49:Drivers/CMSIS/Include/cmsis_gcc.h **** #ifndef   __STATIC_FORCEINLINE                 
  50:Drivers/CMSIS/Include/cmsis_gcc.h ****   #define __STATIC_FORCEINLINE                   __attribute__((always_inline)) static inline
  51:Drivers/CMSIS/Include/cmsis_gcc.h **** #endif                                           
  52:Drivers/CMSIS/Include/cmsis_gcc.h **** #ifndef   __NO_RETURN
  53:Drivers/CMSIS/Include/cmsis_gcc.h ****   #define __NO_RETURN                            __attribute__((__noreturn__))
  54:Drivers/CMSIS/Include/cmsis_gcc.h **** #endif
  55:Drivers/CMSIS/Include/cmsis_gcc.h **** #ifndef   __USED
  56:Drivers/CMSIS/Include/cmsis_gcc.h ****   #define __USED                                 __attribute__((used))
  57:Drivers/CMSIS/Include/cmsis_gcc.h **** #endif
  58:Drivers/CMSIS/Include/cmsis_gcc.h **** #ifndef   __WEAK
  59:Drivers/CMSIS/Include/cmsis_gcc.h ****   #define __WEAK                                 __attribute__((weak))
  60:Drivers/CMSIS/Include/cmsis_gcc.h **** #endif
  61:Drivers/CMSIS/Include/cmsis_gcc.h **** #ifndef   __PACKED
  62:Drivers/CMSIS/Include/cmsis_gcc.h ****   #define __PACKED                               __attribute__((packed, aligned(1)))
  63:Drivers/CMSIS/Include/cmsis_gcc.h **** #endif
  64:Drivers/CMSIS/Include/cmsis_gcc.h **** #ifndef   __PACKED_STRUCT
  65:Drivers/CMSIS/Include/cmsis_gcc.h ****   #define __PACKED_STRUCT                        struct __attribute__((packed, aligned(1)))
  66:Drivers/CMSIS/Include/cmsis_gcc.h **** #endif
  67:Drivers/CMSIS/Include/cmsis_gcc.h **** #ifndef   __PACKED_UNION
  68:Drivers/CMSIS/Include/cmsis_gcc.h ****   #define __PACKED_UNION                         union __attribute__((packed, aligned(1)))
  69:Drivers/CMSIS/Include/cmsis_gcc.h **** #endif
  70:Drivers/CMSIS/Include/cmsis_gcc.h **** #ifndef   __UNALIGNED_UINT32        /* deprecated */
  71:Drivers/CMSIS/Include/cmsis_gcc.h ****   #pragma GCC diagnostic push
  72:Drivers/CMSIS/Include/cmsis_gcc.h ****   #pragma GCC diagnostic ignored "-Wpacked"
  73:Drivers/CMSIS/Include/cmsis_gcc.h ****   #pragma GCC diagnostic ignored "-Wattributes"
  74:Drivers/CMSIS/Include/cmsis_gcc.h ****   struct __attribute__((packed)) T_UINT32 { uint32_t v; };
  75:Drivers/CMSIS/Include/cmsis_gcc.h ****   #pragma GCC diagnostic pop
  76:Drivers/CMSIS/Include/cmsis_gcc.h ****   #define __UNALIGNED_UINT32(x)                  (((struct T_UINT32 *)(x))->v)
  77:Drivers/CMSIS/Include/cmsis_gcc.h **** #endif
  78:Drivers/CMSIS/Include/cmsis_gcc.h **** #ifndef   __UNALIGNED_UINT16_WRITE
  79:Drivers/CMSIS/Include/cmsis_gcc.h ****   #pragma GCC diagnostic push
  80:Drivers/CMSIS/Include/cmsis_gcc.h ****   #pragma GCC diagnostic ignored "-Wpacked"
  81:Drivers/CMSIS/Include/cmsis_gcc.h ****   #pragma GCC diagnostic ignored "-Wattributes"
  82:Drivers/CMSIS/Include/cmsis_gcc.h ****   __PACKED_STRUCT T_UINT16_WRITE { uint16_t v; };
  83:Drivers/CMSIS/Include/cmsis_gcc.h ****   #pragma GCC diagnostic pop
ARM GAS  C:\Users\lzh\AppData\Local\Temp\cckGfb7j.s 			page 23


  84:Drivers/CMSIS/Include/cmsis_gcc.h ****   #define __UNALIGNED_UINT16_WRITE(addr, val)    (void)((((struct T_UINT16_WRITE *)(void *)(addr))-
  85:Drivers/CMSIS/Include/cmsis_gcc.h **** #endif
  86:Drivers/CMSIS/Include/cmsis_gcc.h **** #ifndef   __UNALIGNED_UINT16_READ
  87:Drivers/CMSIS/Include/cmsis_gcc.h ****   #pragma GCC diagnostic push
  88:Drivers/CMSIS/Include/cmsis_gcc.h ****   #pragma GCC diagnostic ignored "-Wpacked"
  89:Drivers/CMSIS/Include/cmsis_gcc.h ****   #pragma GCC diagnostic ignored "-Wattributes"
  90:Drivers/CMSIS/Include/cmsis_gcc.h ****   __PACKED_STRUCT T_UINT16_READ { uint16_t v; };
  91:Drivers/CMSIS/Include/cmsis_gcc.h ****   #pragma GCC diagnostic pop
  92:Drivers/CMSIS/Include/cmsis_gcc.h ****   #define __UNALIGNED_UINT16_READ(addr)          (((const struct T_UINT16_READ *)(const void *)(add
  93:Drivers/CMSIS/Include/cmsis_gcc.h **** #endif
  94:Drivers/CMSIS/Include/cmsis_gcc.h **** #ifndef   __UNALIGNED_UINT32_WRITE
  95:Drivers/CMSIS/Include/cmsis_gcc.h ****   #pragma GCC diagnostic push
  96:Drivers/CMSIS/Include/cmsis_gcc.h ****   #pragma GCC diagnostic ignored "-Wpacked"
  97:Drivers/CMSIS/Include/cmsis_gcc.h ****   #pragma GCC diagnostic ignored "-Wattributes"
  98:Drivers/CMSIS/Include/cmsis_gcc.h ****   __PACKED_STRUCT T_UINT32_WRITE { uint32_t v; };
  99:Drivers/CMSIS/Include/cmsis_gcc.h ****   #pragma GCC diagnostic pop
 100:Drivers/CMSIS/Include/cmsis_gcc.h ****   #define __UNALIGNED_UINT32_WRITE(addr, val)    (void)((((struct T_UINT32_WRITE *)(void *)(addr))-
 101:Drivers/CMSIS/Include/cmsis_gcc.h **** #endif
 102:Drivers/CMSIS/Include/cmsis_gcc.h **** #ifndef   __UNALIGNED_UINT32_READ
 103:Drivers/CMSIS/Include/cmsis_gcc.h ****   #pragma GCC diagnostic push
 104:Drivers/CMSIS/Include/cmsis_gcc.h ****   #pragma GCC diagnostic ignored "-Wpacked"
 105:Drivers/CMSIS/Include/cmsis_gcc.h ****   #pragma GCC diagnostic ignored "-Wattributes"
 106:Drivers/CMSIS/Include/cmsis_gcc.h ****   __PACKED_STRUCT T_UINT32_READ { uint32_t v; };
 107:Drivers/CMSIS/Include/cmsis_gcc.h ****   #pragma GCC diagnostic pop
 108:Drivers/CMSIS/Include/cmsis_gcc.h ****   #define __UNALIGNED_UINT32_READ(addr)          (((const struct T_UINT32_READ *)(const void *)(add
 109:Drivers/CMSIS/Include/cmsis_gcc.h **** #endif
 110:Drivers/CMSIS/Include/cmsis_gcc.h **** #ifndef   __ALIGNED
 111:Drivers/CMSIS/Include/cmsis_gcc.h ****   #define __ALIGNED(x)                           __attribute__((aligned(x)))
 112:Drivers/CMSIS/Include/cmsis_gcc.h **** #endif
 113:Drivers/CMSIS/Include/cmsis_gcc.h **** #ifndef   __RESTRICT
 114:Drivers/CMSIS/Include/cmsis_gcc.h ****   #define __RESTRICT                             __restrict
 115:Drivers/CMSIS/Include/cmsis_gcc.h **** #endif
 116:Drivers/CMSIS/Include/cmsis_gcc.h **** 
 117:Drivers/CMSIS/Include/cmsis_gcc.h **** 
 118:Drivers/CMSIS/Include/cmsis_gcc.h **** /* ###########################  Core Function Access  ########################### */
 119:Drivers/CMSIS/Include/cmsis_gcc.h **** /** \ingroup  CMSIS_Core_FunctionInterface
 120:Drivers/CMSIS/Include/cmsis_gcc.h ****     \defgroup CMSIS_Core_RegAccFunctions CMSIS Core Register Access Functions
 121:Drivers/CMSIS/Include/cmsis_gcc.h ****   @{
 122:Drivers/CMSIS/Include/cmsis_gcc.h ****  */
 123:Drivers/CMSIS/Include/cmsis_gcc.h **** 
 124:Drivers/CMSIS/Include/cmsis_gcc.h **** /**
 125:Drivers/CMSIS/Include/cmsis_gcc.h ****   \brief   Enable IRQ Interrupts
 126:Drivers/CMSIS/Include/cmsis_gcc.h ****   \details Enables IRQ interrupts by clearing the I-bit in the CPSR.
 127:Drivers/CMSIS/Include/cmsis_gcc.h ****            Can only be executed in Privileged modes.
 128:Drivers/CMSIS/Include/cmsis_gcc.h ****  */
 129:Drivers/CMSIS/Include/cmsis_gcc.h **** __STATIC_FORCEINLINE void __enable_irq(void)
 130:Drivers/CMSIS/Include/cmsis_gcc.h **** {
 131:Drivers/CMSIS/Include/cmsis_gcc.h ****   __ASM volatile ("cpsie i" : : : "memory");
 132:Drivers/CMSIS/Include/cmsis_gcc.h **** }
 133:Drivers/CMSIS/Include/cmsis_gcc.h **** 
 134:Drivers/CMSIS/Include/cmsis_gcc.h **** 
 135:Drivers/CMSIS/Include/cmsis_gcc.h **** /**
 136:Drivers/CMSIS/Include/cmsis_gcc.h ****   \brief   Disable IRQ Interrupts
 137:Drivers/CMSIS/Include/cmsis_gcc.h ****   \details Disables IRQ interrupts by setting the I-bit in the CPSR.
 138:Drivers/CMSIS/Include/cmsis_gcc.h ****            Can only be executed in Privileged modes.
 139:Drivers/CMSIS/Include/cmsis_gcc.h ****  */
 140:Drivers/CMSIS/Include/cmsis_gcc.h **** __STATIC_FORCEINLINE void __disable_irq(void)
ARM GAS  C:\Users\lzh\AppData\Local\Temp\cckGfb7j.s 			page 24


 141:Drivers/CMSIS/Include/cmsis_gcc.h **** {
 142:Drivers/CMSIS/Include/cmsis_gcc.h ****   __ASM volatile ("cpsid i" : : : "memory");
 143:Drivers/CMSIS/Include/cmsis_gcc.h **** }
 144:Drivers/CMSIS/Include/cmsis_gcc.h **** 
 145:Drivers/CMSIS/Include/cmsis_gcc.h **** 
 146:Drivers/CMSIS/Include/cmsis_gcc.h **** /**
 147:Drivers/CMSIS/Include/cmsis_gcc.h ****   \brief   Get Control Register
 148:Drivers/CMSIS/Include/cmsis_gcc.h ****   \details Returns the content of the Control Register.
 149:Drivers/CMSIS/Include/cmsis_gcc.h ****   \return               Control Register value
 150:Drivers/CMSIS/Include/cmsis_gcc.h ****  */
 151:Drivers/CMSIS/Include/cmsis_gcc.h **** __STATIC_FORCEINLINE uint32_t __get_CONTROL(void)
 152:Drivers/CMSIS/Include/cmsis_gcc.h **** {
 153:Drivers/CMSIS/Include/cmsis_gcc.h ****   uint32_t result;
 154:Drivers/CMSIS/Include/cmsis_gcc.h **** 
 155:Drivers/CMSIS/Include/cmsis_gcc.h ****   __ASM volatile ("MRS %0, control" : "=r" (result) );
 156:Drivers/CMSIS/Include/cmsis_gcc.h ****   return(result);
 157:Drivers/CMSIS/Include/cmsis_gcc.h **** }
 158:Drivers/CMSIS/Include/cmsis_gcc.h **** 
 159:Drivers/CMSIS/Include/cmsis_gcc.h **** 
 160:Drivers/CMSIS/Include/cmsis_gcc.h **** #if (defined (__ARM_FEATURE_CMSE ) && (__ARM_FEATURE_CMSE == 3))
 161:Drivers/CMSIS/Include/cmsis_gcc.h **** /**
 162:Drivers/CMSIS/Include/cmsis_gcc.h ****   \brief   Get Control Register (non-secure)
 163:Drivers/CMSIS/Include/cmsis_gcc.h ****   \details Returns the content of the non-secure Control Register when in secure mode.
 164:Drivers/CMSIS/Include/cmsis_gcc.h ****   \return               non-secure Control Register value
 165:Drivers/CMSIS/Include/cmsis_gcc.h ****  */
 166:Drivers/CMSIS/Include/cmsis_gcc.h **** __STATIC_FORCEINLINE uint32_t __TZ_get_CONTROL_NS(void)
 167:Drivers/CMSIS/Include/cmsis_gcc.h **** {
 168:Drivers/CMSIS/Include/cmsis_gcc.h ****   uint32_t result;
 169:Drivers/CMSIS/Include/cmsis_gcc.h **** 
 170:Drivers/CMSIS/Include/cmsis_gcc.h ****   __ASM volatile ("MRS %0, control_ns" : "=r" (result) );
 171:Drivers/CMSIS/Include/cmsis_gcc.h ****   return(result);
 172:Drivers/CMSIS/Include/cmsis_gcc.h **** }
 173:Drivers/CMSIS/Include/cmsis_gcc.h **** #endif
 174:Drivers/CMSIS/Include/cmsis_gcc.h **** 
 175:Drivers/CMSIS/Include/cmsis_gcc.h **** 
 176:Drivers/CMSIS/Include/cmsis_gcc.h **** /**
 177:Drivers/CMSIS/Include/cmsis_gcc.h ****   \brief   Set Control Register
 178:Drivers/CMSIS/Include/cmsis_gcc.h ****   \details Writes the given value to the Control Register.
 179:Drivers/CMSIS/Include/cmsis_gcc.h ****   \param [in]    control  Control Register value to set
 180:Drivers/CMSIS/Include/cmsis_gcc.h ****  */
 181:Drivers/CMSIS/Include/cmsis_gcc.h **** __STATIC_FORCEINLINE void __set_CONTROL(uint32_t control)
 182:Drivers/CMSIS/Include/cmsis_gcc.h **** {
 183:Drivers/CMSIS/Include/cmsis_gcc.h ****   __ASM volatile ("MSR control, %0" : : "r" (control) : "memory");
 184:Drivers/CMSIS/Include/cmsis_gcc.h **** }
 185:Drivers/CMSIS/Include/cmsis_gcc.h **** 
 186:Drivers/CMSIS/Include/cmsis_gcc.h **** 
 187:Drivers/CMSIS/Include/cmsis_gcc.h **** #if (defined (__ARM_FEATURE_CMSE ) && (__ARM_FEATURE_CMSE == 3))
 188:Drivers/CMSIS/Include/cmsis_gcc.h **** /**
 189:Drivers/CMSIS/Include/cmsis_gcc.h ****   \brief   Set Control Register (non-secure)
 190:Drivers/CMSIS/Include/cmsis_gcc.h ****   \details Writes the given value to the non-secure Control Register when in secure state.
 191:Drivers/CMSIS/Include/cmsis_gcc.h ****   \param [in]    control  Control Register value to set
 192:Drivers/CMSIS/Include/cmsis_gcc.h ****  */
 193:Drivers/CMSIS/Include/cmsis_gcc.h **** __STATIC_FORCEINLINE void __TZ_set_CONTROL_NS(uint32_t control)
 194:Drivers/CMSIS/Include/cmsis_gcc.h **** {
 195:Drivers/CMSIS/Include/cmsis_gcc.h ****   __ASM volatile ("MSR control_ns, %0" : : "r" (control) : "memory");
 196:Drivers/CMSIS/Include/cmsis_gcc.h **** }
 197:Drivers/CMSIS/Include/cmsis_gcc.h **** #endif
ARM GAS  C:\Users\lzh\AppData\Local\Temp\cckGfb7j.s 			page 25


 198:Drivers/CMSIS/Include/cmsis_gcc.h **** 
 199:Drivers/CMSIS/Include/cmsis_gcc.h **** 
 200:Drivers/CMSIS/Include/cmsis_gcc.h **** /**
 201:Drivers/CMSIS/Include/cmsis_gcc.h ****   \brief   Get IPSR Register
 202:Drivers/CMSIS/Include/cmsis_gcc.h ****   \details Returns the content of the IPSR Register.
 203:Drivers/CMSIS/Include/cmsis_gcc.h ****   \return               IPSR Register value
 204:Drivers/CMSIS/Include/cmsis_gcc.h ****  */
 205:Drivers/CMSIS/Include/cmsis_gcc.h **** __STATIC_FORCEINLINE uint32_t __get_IPSR(void)
 206:Drivers/CMSIS/Include/cmsis_gcc.h **** {
 207:Drivers/CMSIS/Include/cmsis_gcc.h ****   uint32_t result;
 208:Drivers/CMSIS/Include/cmsis_gcc.h **** 
 209:Drivers/CMSIS/Include/cmsis_gcc.h ****   __ASM volatile ("MRS %0, ipsr" : "=r" (result) );
 210:Drivers/CMSIS/Include/cmsis_gcc.h ****   return(result);
 211:Drivers/CMSIS/Include/cmsis_gcc.h **** }
 212:Drivers/CMSIS/Include/cmsis_gcc.h **** 
 213:Drivers/CMSIS/Include/cmsis_gcc.h **** 
 214:Drivers/CMSIS/Include/cmsis_gcc.h **** /**
 215:Drivers/CMSIS/Include/cmsis_gcc.h ****   \brief   Get APSR Register
 216:Drivers/CMSIS/Include/cmsis_gcc.h ****   \details Returns the content of the APSR Register.
 217:Drivers/CMSIS/Include/cmsis_gcc.h ****   \return               APSR Register value
 218:Drivers/CMSIS/Include/cmsis_gcc.h ****  */
 219:Drivers/CMSIS/Include/cmsis_gcc.h **** __STATIC_FORCEINLINE uint32_t __get_APSR(void)
 220:Drivers/CMSIS/Include/cmsis_gcc.h **** {
 221:Drivers/CMSIS/Include/cmsis_gcc.h ****   uint32_t result;
 222:Drivers/CMSIS/Include/cmsis_gcc.h **** 
 223:Drivers/CMSIS/Include/cmsis_gcc.h ****   __ASM volatile ("MRS %0, apsr" : "=r" (result) );
 224:Drivers/CMSIS/Include/cmsis_gcc.h ****   return(result);
 225:Drivers/CMSIS/Include/cmsis_gcc.h **** }
 226:Drivers/CMSIS/Include/cmsis_gcc.h **** 
 227:Drivers/CMSIS/Include/cmsis_gcc.h **** 
 228:Drivers/CMSIS/Include/cmsis_gcc.h **** /**
 229:Drivers/CMSIS/Include/cmsis_gcc.h ****   \brief   Get xPSR Register
 230:Drivers/CMSIS/Include/cmsis_gcc.h ****   \details Returns the content of the xPSR Register.
 231:Drivers/CMSIS/Include/cmsis_gcc.h ****   \return               xPSR Register value
 232:Drivers/CMSIS/Include/cmsis_gcc.h ****  */
 233:Drivers/CMSIS/Include/cmsis_gcc.h **** __STATIC_FORCEINLINE uint32_t __get_xPSR(void)
 234:Drivers/CMSIS/Include/cmsis_gcc.h **** {
 235:Drivers/CMSIS/Include/cmsis_gcc.h ****   uint32_t result;
 236:Drivers/CMSIS/Include/cmsis_gcc.h **** 
 237:Drivers/CMSIS/Include/cmsis_gcc.h ****   __ASM volatile ("MRS %0, xpsr" : "=r" (result) );
 238:Drivers/CMSIS/Include/cmsis_gcc.h ****   return(result);
 239:Drivers/CMSIS/Include/cmsis_gcc.h **** }
 240:Drivers/CMSIS/Include/cmsis_gcc.h **** 
 241:Drivers/CMSIS/Include/cmsis_gcc.h **** 
 242:Drivers/CMSIS/Include/cmsis_gcc.h **** /**
 243:Drivers/CMSIS/Include/cmsis_gcc.h ****   \brief   Get Process Stack Pointer
 244:Drivers/CMSIS/Include/cmsis_gcc.h ****   \details Returns the current value of the Process Stack Pointer (PSP).
 245:Drivers/CMSIS/Include/cmsis_gcc.h ****   \return               PSP Register value
 246:Drivers/CMSIS/Include/cmsis_gcc.h ****  */
 247:Drivers/CMSIS/Include/cmsis_gcc.h **** __STATIC_FORCEINLINE uint32_t __get_PSP(void)
 248:Drivers/CMSIS/Include/cmsis_gcc.h **** {
 249:Drivers/CMSIS/Include/cmsis_gcc.h ****   uint32_t result;
 250:Drivers/CMSIS/Include/cmsis_gcc.h **** 
 251:Drivers/CMSIS/Include/cmsis_gcc.h ****   __ASM volatile ("MRS %0, psp"  : "=r" (result) );
 252:Drivers/CMSIS/Include/cmsis_gcc.h ****   return(result);
 253:Drivers/CMSIS/Include/cmsis_gcc.h **** }
 254:Drivers/CMSIS/Include/cmsis_gcc.h **** 
ARM GAS  C:\Users\lzh\AppData\Local\Temp\cckGfb7j.s 			page 26


 255:Drivers/CMSIS/Include/cmsis_gcc.h **** 
 256:Drivers/CMSIS/Include/cmsis_gcc.h **** #if (defined (__ARM_FEATURE_CMSE ) && (__ARM_FEATURE_CMSE == 3))
 257:Drivers/CMSIS/Include/cmsis_gcc.h **** /**
 258:Drivers/CMSIS/Include/cmsis_gcc.h ****   \brief   Get Process Stack Pointer (non-secure)
 259:Drivers/CMSIS/Include/cmsis_gcc.h ****   \details Returns the current value of the non-secure Process Stack Pointer (PSP) when in secure s
 260:Drivers/CMSIS/Include/cmsis_gcc.h ****   \return               PSP Register value
 261:Drivers/CMSIS/Include/cmsis_gcc.h ****  */
 262:Drivers/CMSIS/Include/cmsis_gcc.h **** __STATIC_FORCEINLINE uint32_t __TZ_get_PSP_NS(void)
 263:Drivers/CMSIS/Include/cmsis_gcc.h **** {
 264:Drivers/CMSIS/Include/cmsis_gcc.h ****   uint32_t result;
 265:Drivers/CMSIS/Include/cmsis_gcc.h **** 
 266:Drivers/CMSIS/Include/cmsis_gcc.h ****   __ASM volatile ("MRS %0, psp_ns"  : "=r" (result) );
 267:Drivers/CMSIS/Include/cmsis_gcc.h ****   return(result);
 268:Drivers/CMSIS/Include/cmsis_gcc.h **** }
 269:Drivers/CMSIS/Include/cmsis_gcc.h **** #endif
 270:Drivers/CMSIS/Include/cmsis_gcc.h **** 
 271:Drivers/CMSIS/Include/cmsis_gcc.h **** 
 272:Drivers/CMSIS/Include/cmsis_gcc.h **** /**
 273:Drivers/CMSIS/Include/cmsis_gcc.h ****   \brief   Set Process Stack Pointer
 274:Drivers/CMSIS/Include/cmsis_gcc.h ****   \details Assigns the given value to the Process Stack Pointer (PSP).
 275:Drivers/CMSIS/Include/cmsis_gcc.h ****   \param [in]    topOfProcStack  Process Stack Pointer value to set
 276:Drivers/CMSIS/Include/cmsis_gcc.h ****  */
 277:Drivers/CMSIS/Include/cmsis_gcc.h **** __STATIC_FORCEINLINE void __set_PSP(uint32_t topOfProcStack)
 278:Drivers/CMSIS/Include/cmsis_gcc.h **** {
 279:Drivers/CMSIS/Include/cmsis_gcc.h ****   __ASM volatile ("MSR psp, %0" : : "r" (topOfProcStack) : );
 280:Drivers/CMSIS/Include/cmsis_gcc.h **** }
 281:Drivers/CMSIS/Include/cmsis_gcc.h **** 
 282:Drivers/CMSIS/Include/cmsis_gcc.h **** 
 283:Drivers/CMSIS/Include/cmsis_gcc.h **** #if (defined (__ARM_FEATURE_CMSE ) && (__ARM_FEATURE_CMSE == 3))
 284:Drivers/CMSIS/Include/cmsis_gcc.h **** /**
 285:Drivers/CMSIS/Include/cmsis_gcc.h ****   \brief   Set Process Stack Pointer (non-secure)
 286:Drivers/CMSIS/Include/cmsis_gcc.h ****   \details Assigns the given value to the non-secure Process Stack Pointer (PSP) when in secure sta
 287:Drivers/CMSIS/Include/cmsis_gcc.h ****   \param [in]    topOfProcStack  Process Stack Pointer value to set
 288:Drivers/CMSIS/Include/cmsis_gcc.h ****  */
 289:Drivers/CMSIS/Include/cmsis_gcc.h **** __STATIC_FORCEINLINE void __TZ_set_PSP_NS(uint32_t topOfProcStack)
 290:Drivers/CMSIS/Include/cmsis_gcc.h **** {
 291:Drivers/CMSIS/Include/cmsis_gcc.h ****   __ASM volatile ("MSR psp_ns, %0" : : "r" (topOfProcStack) : );
 292:Drivers/CMSIS/Include/cmsis_gcc.h **** }
 293:Drivers/CMSIS/Include/cmsis_gcc.h **** #endif
 294:Drivers/CMSIS/Include/cmsis_gcc.h **** 
 295:Drivers/CMSIS/Include/cmsis_gcc.h **** 
 296:Drivers/CMSIS/Include/cmsis_gcc.h **** /**
 297:Drivers/CMSIS/Include/cmsis_gcc.h ****   \brief   Get Main Stack Pointer
 298:Drivers/CMSIS/Include/cmsis_gcc.h ****   \details Returns the current value of the Main Stack Pointer (MSP).
 299:Drivers/CMSIS/Include/cmsis_gcc.h ****   \return               MSP Register value
 300:Drivers/CMSIS/Include/cmsis_gcc.h ****  */
 301:Drivers/CMSIS/Include/cmsis_gcc.h **** __STATIC_FORCEINLINE uint32_t __get_MSP(void)
 302:Drivers/CMSIS/Include/cmsis_gcc.h **** {
 303:Drivers/CMSIS/Include/cmsis_gcc.h ****   uint32_t result;
 304:Drivers/CMSIS/Include/cmsis_gcc.h **** 
 305:Drivers/CMSIS/Include/cmsis_gcc.h ****   __ASM volatile ("MRS %0, msp" : "=r" (result) );
 306:Drivers/CMSIS/Include/cmsis_gcc.h ****   return(result);
 307:Drivers/CMSIS/Include/cmsis_gcc.h **** }
 308:Drivers/CMSIS/Include/cmsis_gcc.h **** 
 309:Drivers/CMSIS/Include/cmsis_gcc.h **** 
 310:Drivers/CMSIS/Include/cmsis_gcc.h **** #if (defined (__ARM_FEATURE_CMSE ) && (__ARM_FEATURE_CMSE == 3))
 311:Drivers/CMSIS/Include/cmsis_gcc.h **** /**
ARM GAS  C:\Users\lzh\AppData\Local\Temp\cckGfb7j.s 			page 27


 312:Drivers/CMSIS/Include/cmsis_gcc.h ****   \brief   Get Main Stack Pointer (non-secure)
 313:Drivers/CMSIS/Include/cmsis_gcc.h ****   \details Returns the current value of the non-secure Main Stack Pointer (MSP) when in secure stat
 314:Drivers/CMSIS/Include/cmsis_gcc.h ****   \return               MSP Register value
 315:Drivers/CMSIS/Include/cmsis_gcc.h ****  */
 316:Drivers/CMSIS/Include/cmsis_gcc.h **** __STATIC_FORCEINLINE uint32_t __TZ_get_MSP_NS(void)
 317:Drivers/CMSIS/Include/cmsis_gcc.h **** {
 318:Drivers/CMSIS/Include/cmsis_gcc.h ****   uint32_t result;
 319:Drivers/CMSIS/Include/cmsis_gcc.h **** 
 320:Drivers/CMSIS/Include/cmsis_gcc.h ****   __ASM volatile ("MRS %0, msp_ns" : "=r" (result) );
 321:Drivers/CMSIS/Include/cmsis_gcc.h ****   return(result);
 322:Drivers/CMSIS/Include/cmsis_gcc.h **** }
 323:Drivers/CMSIS/Include/cmsis_gcc.h **** #endif
 324:Drivers/CMSIS/Include/cmsis_gcc.h **** 
 325:Drivers/CMSIS/Include/cmsis_gcc.h **** 
 326:Drivers/CMSIS/Include/cmsis_gcc.h **** /**
 327:Drivers/CMSIS/Include/cmsis_gcc.h ****   \brief   Set Main Stack Pointer
 328:Drivers/CMSIS/Include/cmsis_gcc.h ****   \details Assigns the given value to the Main Stack Pointer (MSP).
 329:Drivers/CMSIS/Include/cmsis_gcc.h ****   \param [in]    topOfMainStack  Main Stack Pointer value to set
 330:Drivers/CMSIS/Include/cmsis_gcc.h ****  */
 331:Drivers/CMSIS/Include/cmsis_gcc.h **** __STATIC_FORCEINLINE void __set_MSP(uint32_t topOfMainStack)
 332:Drivers/CMSIS/Include/cmsis_gcc.h **** {
 333:Drivers/CMSIS/Include/cmsis_gcc.h ****   __ASM volatile ("MSR msp, %0" : : "r" (topOfMainStack) : );
 334:Drivers/CMSIS/Include/cmsis_gcc.h **** }
 335:Drivers/CMSIS/Include/cmsis_gcc.h **** 
 336:Drivers/CMSIS/Include/cmsis_gcc.h **** 
 337:Drivers/CMSIS/Include/cmsis_gcc.h **** #if (defined (__ARM_FEATURE_CMSE ) && (__ARM_FEATURE_CMSE == 3))
 338:Drivers/CMSIS/Include/cmsis_gcc.h **** /**
 339:Drivers/CMSIS/Include/cmsis_gcc.h ****   \brief   Set Main Stack Pointer (non-secure)
 340:Drivers/CMSIS/Include/cmsis_gcc.h ****   \details Assigns the given value to the non-secure Main Stack Pointer (MSP) when in secure state.
 341:Drivers/CMSIS/Include/cmsis_gcc.h ****   \param [in]    topOfMainStack  Main Stack Pointer value to set
 342:Drivers/CMSIS/Include/cmsis_gcc.h ****  */
 343:Drivers/CMSIS/Include/cmsis_gcc.h **** __STATIC_FORCEINLINE void __TZ_set_MSP_NS(uint32_t topOfMainStack)
 344:Drivers/CMSIS/Include/cmsis_gcc.h **** {
 345:Drivers/CMSIS/Include/cmsis_gcc.h ****   __ASM volatile ("MSR msp_ns, %0" : : "r" (topOfMainStack) : );
 346:Drivers/CMSIS/Include/cmsis_gcc.h **** }
 347:Drivers/CMSIS/Include/cmsis_gcc.h **** #endif
 348:Drivers/CMSIS/Include/cmsis_gcc.h **** 
 349:Drivers/CMSIS/Include/cmsis_gcc.h **** 
 350:Drivers/CMSIS/Include/cmsis_gcc.h **** #if (defined (__ARM_FEATURE_CMSE ) && (__ARM_FEATURE_CMSE == 3))
 351:Drivers/CMSIS/Include/cmsis_gcc.h **** /**
 352:Drivers/CMSIS/Include/cmsis_gcc.h ****   \brief   Get Stack Pointer (non-secure)
 353:Drivers/CMSIS/Include/cmsis_gcc.h ****   \details Returns the current value of the non-secure Stack Pointer (SP) when in secure state.
 354:Drivers/CMSIS/Include/cmsis_gcc.h ****   \return               SP Register value
 355:Drivers/CMSIS/Include/cmsis_gcc.h ****  */
 356:Drivers/CMSIS/Include/cmsis_gcc.h **** __STATIC_FORCEINLINE uint32_t __TZ_get_SP_NS(void)
 357:Drivers/CMSIS/Include/cmsis_gcc.h **** {
 358:Drivers/CMSIS/Include/cmsis_gcc.h ****   uint32_t result;
 359:Drivers/CMSIS/Include/cmsis_gcc.h **** 
 360:Drivers/CMSIS/Include/cmsis_gcc.h ****   __ASM volatile ("MRS %0, sp_ns" : "=r" (result) );
 361:Drivers/CMSIS/Include/cmsis_gcc.h ****   return(result);
 362:Drivers/CMSIS/Include/cmsis_gcc.h **** }
 363:Drivers/CMSIS/Include/cmsis_gcc.h **** 
 364:Drivers/CMSIS/Include/cmsis_gcc.h **** 
 365:Drivers/CMSIS/Include/cmsis_gcc.h **** /**
 366:Drivers/CMSIS/Include/cmsis_gcc.h ****   \brief   Set Stack Pointer (non-secure)
 367:Drivers/CMSIS/Include/cmsis_gcc.h ****   \details Assigns the given value to the non-secure Stack Pointer (SP) when in secure state.
 368:Drivers/CMSIS/Include/cmsis_gcc.h ****   \param [in]    topOfStack  Stack Pointer value to set
ARM GAS  C:\Users\lzh\AppData\Local\Temp\cckGfb7j.s 			page 28


 369:Drivers/CMSIS/Include/cmsis_gcc.h ****  */
 370:Drivers/CMSIS/Include/cmsis_gcc.h **** __STATIC_FORCEINLINE void __TZ_set_SP_NS(uint32_t topOfStack)
 371:Drivers/CMSIS/Include/cmsis_gcc.h **** {
 372:Drivers/CMSIS/Include/cmsis_gcc.h ****   __ASM volatile ("MSR sp_ns, %0" : : "r" (topOfStack) : );
 373:Drivers/CMSIS/Include/cmsis_gcc.h **** }
 374:Drivers/CMSIS/Include/cmsis_gcc.h **** #endif
 375:Drivers/CMSIS/Include/cmsis_gcc.h **** 
 376:Drivers/CMSIS/Include/cmsis_gcc.h **** 
 377:Drivers/CMSIS/Include/cmsis_gcc.h **** /**
 378:Drivers/CMSIS/Include/cmsis_gcc.h ****   \brief   Get Priority Mask
 379:Drivers/CMSIS/Include/cmsis_gcc.h ****   \details Returns the current state of the priority mask bit from the Priority Mask Register.
 380:Drivers/CMSIS/Include/cmsis_gcc.h ****   \return               Priority Mask value
 381:Drivers/CMSIS/Include/cmsis_gcc.h ****  */
 382:Drivers/CMSIS/Include/cmsis_gcc.h **** __STATIC_FORCEINLINE uint32_t __get_PRIMASK(void)
 278              		.loc 2 382 31 discriminator 2 view .LVU60
 279              	.LBB46:
 383:Drivers/CMSIS/Include/cmsis_gcc.h **** {
 384:Drivers/CMSIS/Include/cmsis_gcc.h ****   uint32_t result;
 280              		.loc 2 384 3 discriminator 2 view .LVU61
 385:Drivers/CMSIS/Include/cmsis_gcc.h **** 
 386:Drivers/CMSIS/Include/cmsis_gcc.h ****   __ASM volatile ("MRS %0, primask" : "=r" (result) :: "memory");
 281              		.loc 2 386 3 discriminator 2 view .LVU62
 282              		.syntax divided
 283              	@ 386 "Drivers/CMSIS/Include/cmsis_gcc.h" 1
 284 0010 EFF3108C 		MRS ip, primask
 285              	@ 0 "" 2
 286              	.LVL19:
 387:Drivers/CMSIS/Include/cmsis_gcc.h ****   return(result);
 287              		.loc 2 387 3 discriminator 2 view .LVU63
 288              		.loc 2 387 3 is_stmt 0 discriminator 2 view .LVU64
 289              		.thumb
 290              		.syntax unified
 291              	.LBE46:
 292              	.LBE45:
 337:Drivers/STM32L0xx_HAL_Driver/Src/stm32l0xx_hal_uart_ex.c **** 
 293              		.loc 1 337 3 is_stmt 1 discriminator 2 view .LVU65
 294              	.LBB47:
 295              	.LBI47:
 388:Drivers/CMSIS/Include/cmsis_gcc.h **** }
 389:Drivers/CMSIS/Include/cmsis_gcc.h **** 
 390:Drivers/CMSIS/Include/cmsis_gcc.h **** 
 391:Drivers/CMSIS/Include/cmsis_gcc.h **** #if (defined (__ARM_FEATURE_CMSE ) && (__ARM_FEATURE_CMSE == 3))
 392:Drivers/CMSIS/Include/cmsis_gcc.h **** /**
 393:Drivers/CMSIS/Include/cmsis_gcc.h ****   \brief   Get Priority Mask (non-secure)
 394:Drivers/CMSIS/Include/cmsis_gcc.h ****   \details Returns the current state of the non-secure priority mask bit from the Priority Mask Reg
 395:Drivers/CMSIS/Include/cmsis_gcc.h ****   \return               Priority Mask value
 396:Drivers/CMSIS/Include/cmsis_gcc.h ****  */
 397:Drivers/CMSIS/Include/cmsis_gcc.h **** __STATIC_FORCEINLINE uint32_t __TZ_get_PRIMASK_NS(void)
 398:Drivers/CMSIS/Include/cmsis_gcc.h **** {
 399:Drivers/CMSIS/Include/cmsis_gcc.h ****   uint32_t result;
 400:Drivers/CMSIS/Include/cmsis_gcc.h **** 
 401:Drivers/CMSIS/Include/cmsis_gcc.h ****   __ASM volatile ("MRS %0, primask_ns" : "=r" (result) :: "memory");
 402:Drivers/CMSIS/Include/cmsis_gcc.h ****   return(result);
 403:Drivers/CMSIS/Include/cmsis_gcc.h **** }
 404:Drivers/CMSIS/Include/cmsis_gcc.h **** #endif
 405:Drivers/CMSIS/Include/cmsis_gcc.h **** 
 406:Drivers/CMSIS/Include/cmsis_gcc.h **** 
ARM GAS  C:\Users\lzh\AppData\Local\Temp\cckGfb7j.s 			page 29


 407:Drivers/CMSIS/Include/cmsis_gcc.h **** /**
 408:Drivers/CMSIS/Include/cmsis_gcc.h ****   \brief   Set Priority Mask
 409:Drivers/CMSIS/Include/cmsis_gcc.h ****   \details Assigns the given value to the Priority Mask Register.
 410:Drivers/CMSIS/Include/cmsis_gcc.h ****   \param [in]    priMask  Priority Mask
 411:Drivers/CMSIS/Include/cmsis_gcc.h ****  */
 412:Drivers/CMSIS/Include/cmsis_gcc.h **** __STATIC_FORCEINLINE void __set_PRIMASK(uint32_t priMask)
 296              		.loc 2 412 27 discriminator 2 view .LVU66
 297              	.LBB48:
 413:Drivers/CMSIS/Include/cmsis_gcc.h **** {
 414:Drivers/CMSIS/Include/cmsis_gcc.h ****   __ASM volatile ("MSR primask, %0" : : "r" (priMask) : "memory");
 298              		.loc 2 414 3 discriminator 2 view .LVU67
 299              		.syntax divided
 300              	@ 414 "Drivers/CMSIS/Include/cmsis_gcc.h" 1
 301 0014 83F31088 		MSR primask, r3
 302              	@ 0 "" 2
 303              	.LVL20:
 304              		.loc 2 414 3 is_stmt 0 discriminator 2 view .LVU68
 305              		.thumb
 306              		.syntax unified
 307              	.LBE48:
 308              	.LBE47:
 337:Drivers/STM32L0xx_HAL_Driver/Src/stm32l0xx_hal_uart_ex.c **** 
 309              		.loc 1 337 3 is_stmt 1 discriminator 2 view .LVU69
 310 0018 0168     		ldr	r1, [r0]
 311 001a 8C68     		ldr	r4, [r1, #8]
 312 001c 8023     		movs	r3, #128
 313 001e 1B04     		lsls	r3, r3, #16
 314 0020 2343     		orrs	r3, r4
 315 0022 8B60     		str	r3, [r1, #8]
 337:Drivers/STM32L0xx_HAL_Driver/Src/stm32l0xx_hal_uart_ex.c **** 
 316              		.loc 1 337 3 discriminator 2 view .LVU70
 317              	.LVL21:
 318              	.LBB49:
 319              	.LBI49:
 412:Drivers/CMSIS/Include/cmsis_gcc.h **** {
 320              		.loc 2 412 27 discriminator 2 view .LVU71
 321              	.LBB50:
 322              		.loc 2 414 3 discriminator 2 view .LVU72
 323              		.syntax divided
 324              	@ 414 "Drivers/CMSIS/Include/cmsis_gcc.h" 1
 325 0024 8CF31088 		MSR primask, ip
 326              	@ 0 "" 2
 327              	.LVL22:
 328              		.loc 2 414 3 is_stmt 0 discriminator 2 view .LVU73
 329              		.thumb
 330              		.syntax unified
 331              	.LBE50:
 332              	.LBE49:
 333              	.LBE44:
 337:Drivers/STM32L0xx_HAL_Driver/Src/stm32l0xx_hal_uart_ex.c **** 
 334              		.loc 1 337 3 is_stmt 1 discriminator 2 view .LVU74
 340:Drivers/STM32L0xx_HAL_Driver/Src/stm32l0xx_hal_uart_ex.c **** 
 335              		.loc 1 340 3 discriminator 2 view .LVU75
 340:Drivers/STM32L0xx_HAL_Driver/Src/stm32l0xx_hal_uart_ex.c **** 
 336              		.loc 1 340 3 discriminator 2 view .LVU76
 337 0028 0023     		movs	r3, #0
 338 002a 8354     		strb	r3, [r0, r2]
ARM GAS  C:\Users\lzh\AppData\Local\Temp\cckGfb7j.s 			page 30


 340:Drivers/STM32L0xx_HAL_Driver/Src/stm32l0xx_hal_uart_ex.c **** 
 339              		.loc 1 340 3 discriminator 2 view .LVU77
 342:Drivers/STM32L0xx_HAL_Driver/Src/stm32l0xx_hal_uart_ex.c **** }
 340              		.loc 1 342 3 discriminator 2 view .LVU78
 342:Drivers/STM32L0xx_HAL_Driver/Src/stm32l0xx_hal_uart_ex.c **** }
 341              		.loc 1 342 10 is_stmt 0 discriminator 2 view .LVU79
 342 002c 0020     		movs	r0, #0
 343              	.LVL23:
 344              	.L13:
 343:Drivers/STM32L0xx_HAL_Driver/Src/stm32l0xx_hal_uart_ex.c **** 
 345              		.loc 1 343 1 view .LVU80
 346              		@ sp needed
 347 002e 10BD     		pop	{r4, pc}
 348              	.LVL24:
 349              	.L14:
 334:Drivers/STM32L0xx_HAL_Driver/Src/stm32l0xx_hal_uart_ex.c **** 
 350              		.loc 1 334 3 view .LVU81
 351 0030 0220     		movs	r0, #2
 352              	.LVL25:
 334:Drivers/STM32L0xx_HAL_Driver/Src/stm32l0xx_hal_uart_ex.c **** 
 353              		.loc 1 334 3 view .LVU82
 354 0032 FCE7     		b	.L13
 355              		.cfi_endproc
 356              	.LFE42:
 358              		.section	.text.HAL_UARTEx_DisableClockStopMode,"ax",%progbits
 359              		.align	1
 360              		.global	HAL_UARTEx_DisableClockStopMode
 361              		.syntax unified
 362              		.code	16
 363              		.thumb_func
 365              	HAL_UARTEx_DisableClockStopMode:
 366              	.LVL26:
 367              	.LFB43:
 351:Drivers/STM32L0xx_HAL_Driver/Src/stm32l0xx_hal_uart_ex.c ****   /* Process Locked */
 368              		.loc 1 351 1 is_stmt 1 view -0
 369              		.cfi_startproc
 370              		@ args = 0, pretend = 0, frame = 0
 371              		@ frame_needed = 0, uses_anonymous_args = 0
 351:Drivers/STM32L0xx_HAL_Driver/Src/stm32l0xx_hal_uart_ex.c ****   /* Process Locked */
 372              		.loc 1 351 1 is_stmt 0 view .LVU84
 373 0000 10B5     		push	{r4, lr}
 374              		.cfi_def_cfa_offset 8
 375              		.cfi_offset 4, -8
 376              		.cfi_offset 14, -4
 353:Drivers/STM32L0xx_HAL_Driver/Src/stm32l0xx_hal_uart_ex.c **** 
 377              		.loc 1 353 3 is_stmt 1 view .LVU85
 353:Drivers/STM32L0xx_HAL_Driver/Src/stm32l0xx_hal_uart_ex.c **** 
 378              		.loc 1 353 3 view .LVU86
 379 0002 7823     		movs	r3, #120
 380 0004 C35C     		ldrb	r3, [r0, r3]
 381 0006 012B     		cmp	r3, #1
 382 0008 11D0     		beq	.L17
 353:Drivers/STM32L0xx_HAL_Driver/Src/stm32l0xx_hal_uart_ex.c **** 
 383              		.loc 1 353 3 discriminator 2 view .LVU87
 384 000a 7822     		movs	r2, #120
 385 000c 0123     		movs	r3, #1
 386 000e 8354     		strb	r3, [r0, r2]
ARM GAS  C:\Users\lzh\AppData\Local\Temp\cckGfb7j.s 			page 31


 353:Drivers/STM32L0xx_HAL_Driver/Src/stm32l0xx_hal_uart_ex.c **** 
 387              		.loc 1 353 3 discriminator 2 view .LVU88
 356:Drivers/STM32L0xx_HAL_Driver/Src/stm32l0xx_hal_uart_ex.c **** 
 388              		.loc 1 356 3 discriminator 2 view .LVU89
 389              	.LBB51:
 356:Drivers/STM32L0xx_HAL_Driver/Src/stm32l0xx_hal_uart_ex.c **** 
 390              		.loc 1 356 3 discriminator 2 view .LVU90
 356:Drivers/STM32L0xx_HAL_Driver/Src/stm32l0xx_hal_uart_ex.c **** 
 391              		.loc 1 356 3 discriminator 2 view .LVU91
 392              	.LBB52:
 393              	.LBI52:
 382:Drivers/CMSIS/Include/cmsis_gcc.h **** {
 394              		.loc 2 382 31 discriminator 2 view .LVU92
 395              	.LBB53:
 384:Drivers/CMSIS/Include/cmsis_gcc.h **** 
 396              		.loc 2 384 3 discriminator 2 view .LVU93
 386:Drivers/CMSIS/Include/cmsis_gcc.h ****   return(result);
 397              		.loc 2 386 3 discriminator 2 view .LVU94
 398              		.syntax divided
 399              	@ 386 "Drivers/CMSIS/Include/cmsis_gcc.h" 1
 400 0010 EFF3108C 		MRS ip, primask
 401              	@ 0 "" 2
 402              	.LVL27:
 387:Drivers/CMSIS/Include/cmsis_gcc.h **** }
 403              		.loc 2 387 3 discriminator 2 view .LVU95
 387:Drivers/CMSIS/Include/cmsis_gcc.h **** }
 404              		.loc 2 387 3 is_stmt 0 discriminator 2 view .LVU96
 405              		.thumb
 406              		.syntax unified
 407              	.LBE53:
 408              	.LBE52:
 356:Drivers/STM32L0xx_HAL_Driver/Src/stm32l0xx_hal_uart_ex.c **** 
 409              		.loc 1 356 3 is_stmt 1 discriminator 2 view .LVU97
 410              	.LBB54:
 411              	.LBI54:
 412:Drivers/CMSIS/Include/cmsis_gcc.h **** {
 412              		.loc 2 412 27 discriminator 2 view .LVU98
 413              	.LBB55:
 414              		.loc 2 414 3 discriminator 2 view .LVU99
 415              		.syntax divided
 416              	@ 414 "Drivers/CMSIS/Include/cmsis_gcc.h" 1
 417 0014 83F31088 		MSR primask, r3
 418              	@ 0 "" 2
 419              	.LVL28:
 420              		.loc 2 414 3 is_stmt 0 discriminator 2 view .LVU100
 421              		.thumb
 422              		.syntax unified
 423              	.LBE55:
 424              	.LBE54:
 356:Drivers/STM32L0xx_HAL_Driver/Src/stm32l0xx_hal_uart_ex.c **** 
 425              		.loc 1 356 3 is_stmt 1 discriminator 2 view .LVU101
 426 0018 0168     		ldr	r1, [r0]
 427 001a 8B68     		ldr	r3, [r1, #8]
 428 001c 054C     		ldr	r4, .L18
 429 001e 2340     		ands	r3, r4
 430 0020 8B60     		str	r3, [r1, #8]
 356:Drivers/STM32L0xx_HAL_Driver/Src/stm32l0xx_hal_uart_ex.c **** 
ARM GAS  C:\Users\lzh\AppData\Local\Temp\cckGfb7j.s 			page 32


 431              		.loc 1 356 3 discriminator 2 view .LVU102
 432              	.LVL29:
 433              	.LBB56:
 434              	.LBI56:
 412:Drivers/CMSIS/Include/cmsis_gcc.h **** {
 435              		.loc 2 412 27 discriminator 2 view .LVU103
 436              	.LBB57:
 437              		.loc 2 414 3 discriminator 2 view .LVU104
 438              		.syntax divided
 439              	@ 414 "Drivers/CMSIS/Include/cmsis_gcc.h" 1
 440 0022 8CF31088 		MSR primask, ip
 441              	@ 0 "" 2
 442              	.LVL30:
 443              		.loc 2 414 3 is_stmt 0 discriminator 2 view .LVU105
 444              		.thumb
 445              		.syntax unified
 446              	.LBE57:
 447              	.LBE56:
 448              	.LBE51:
 356:Drivers/STM32L0xx_HAL_Driver/Src/stm32l0xx_hal_uart_ex.c **** 
 449              		.loc 1 356 3 is_stmt 1 discriminator 2 view .LVU106
 359:Drivers/STM32L0xx_HAL_Driver/Src/stm32l0xx_hal_uart_ex.c **** 
 450              		.loc 1 359 3 discriminator 2 view .LVU107
 359:Drivers/STM32L0xx_HAL_Driver/Src/stm32l0xx_hal_uart_ex.c **** 
 451              		.loc 1 359 3 discriminator 2 view .LVU108
 452 0026 0023     		movs	r3, #0
 453 0028 8354     		strb	r3, [r0, r2]
 359:Drivers/STM32L0xx_HAL_Driver/Src/stm32l0xx_hal_uart_ex.c **** 
 454              		.loc 1 359 3 discriminator 2 view .LVU109
 361:Drivers/STM32L0xx_HAL_Driver/Src/stm32l0xx_hal_uart_ex.c **** }
 455              		.loc 1 361 3 discriminator 2 view .LVU110
 361:Drivers/STM32L0xx_HAL_Driver/Src/stm32l0xx_hal_uart_ex.c **** }
 456              		.loc 1 361 10 is_stmt 0 discriminator 2 view .LVU111
 457 002a 0020     		movs	r0, #0
 458              	.LVL31:
 459              	.L16:
 362:Drivers/STM32L0xx_HAL_Driver/Src/stm32l0xx_hal_uart_ex.c **** 
 460              		.loc 1 362 1 view .LVU112
 461              		@ sp needed
 462 002c 10BD     		pop	{r4, pc}
 463              	.LVL32:
 464              	.L17:
 353:Drivers/STM32L0xx_HAL_Driver/Src/stm32l0xx_hal_uart_ex.c **** 
 465              		.loc 1 353 3 view .LVU113
 466 002e 0220     		movs	r0, #2
 467              	.LVL33:
 353:Drivers/STM32L0xx_HAL_Driver/Src/stm32l0xx_hal_uart_ex.c **** 
 468              		.loc 1 353 3 view .LVU114
 469 0030 FCE7     		b	.L16
 470              	.L19:
 471 0032 C046     		.align	2
 472              	.L18:
 473 0034 FFFF7FFF 		.word	-8388609
 474              		.cfi_endproc
 475              	.LFE43:
 477              		.section	.text.HAL_MultiProcessorEx_AddressLength_Set,"ax",%progbits
 478              		.align	1
ARM GAS  C:\Users\lzh\AppData\Local\Temp\cckGfb7j.s 			page 33


 479              		.global	HAL_MultiProcessorEx_AddressLength_Set
 480              		.syntax unified
 481              		.code	16
 482              		.thumb_func
 484              	HAL_MultiProcessorEx_AddressLength_Set:
 485              	.LVL34:
 486              	.LFB44:
 378:Drivers/STM32L0xx_HAL_Driver/Src/stm32l0xx_hal_uart_ex.c ****   /* Check the UART handle allocation */
 487              		.loc 1 378 1 is_stmt 1 view -0
 488              		.cfi_startproc
 489              		@ args = 0, pretend = 0, frame = 0
 490              		@ frame_needed = 0, uses_anonymous_args = 0
 378:Drivers/STM32L0xx_HAL_Driver/Src/stm32l0xx_hal_uart_ex.c ****   /* Check the UART handle allocation */
 491              		.loc 1 378 1 is_stmt 0 view .LVU116
 492 0000 70B5     		push	{r4, r5, r6, lr}
 493              		.cfi_def_cfa_offset 16
 494              		.cfi_offset 4, -16
 495              		.cfi_offset 5, -12
 496              		.cfi_offset 6, -8
 497              		.cfi_offset 14, -4
 498 0002 0B00     		movs	r3, r1
 380:Drivers/STM32L0xx_HAL_Driver/Src/stm32l0xx_hal_uart_ex.c ****   {
 499              		.loc 1 380 3 is_stmt 1 view .LVU117
 380:Drivers/STM32L0xx_HAL_Driver/Src/stm32l0xx_hal_uart_ex.c ****   {
 500              		.loc 1 380 6 is_stmt 0 view .LVU118
 501 0004 0028     		cmp	r0, #0
 502 0006 13D0     		beq	.L22
 386:Drivers/STM32L0xx_HAL_Driver/Src/stm32l0xx_hal_uart_ex.c **** 
 503              		.loc 1 386 3 is_stmt 1 view .LVU119
 388:Drivers/STM32L0xx_HAL_Driver/Src/stm32l0xx_hal_uart_ex.c **** 
 504              		.loc 1 388 3 view .LVU120
 388:Drivers/STM32L0xx_HAL_Driver/Src/stm32l0xx_hal_uart_ex.c **** 
 505              		.loc 1 388 17 is_stmt 0 view .LVU121
 506 0008 2422     		movs	r2, #36
 507 000a C267     		str	r2, [r0, #124]
 391:Drivers/STM32L0xx_HAL_Driver/Src/stm32l0xx_hal_uart_ex.c **** 
 508              		.loc 1 391 3 is_stmt 1 view .LVU122
 509 000c 0168     		ldr	r1, [r0]
 510              	.LVL35:
 391:Drivers/STM32L0xx_HAL_Driver/Src/stm32l0xx_hal_uart_ex.c **** 
 511              		.loc 1 391 3 is_stmt 0 view .LVU123
 512 000e 0A68     		ldr	r2, [r1]
 513 0010 0124     		movs	r4, #1
 514 0012 A243     		bics	r2, r4
 515 0014 0A60     		str	r2, [r1]
 394:Drivers/STM32L0xx_HAL_Driver/Src/stm32l0xx_hal_uart_ex.c **** 
 516              		.loc 1 394 3 is_stmt 1 view .LVU124
 517 0016 0268     		ldr	r2, [r0]
 518 0018 5168     		ldr	r1, [r2, #4]
 519 001a 1025     		movs	r5, #16
 520 001c A943     		bics	r1, r5
 521 001e 1943     		orrs	r1, r3
 522 0020 5160     		str	r1, [r2, #4]
 397:Drivers/STM32L0xx_HAL_Driver/Src/stm32l0xx_hal_uart_ex.c **** 
 523              		.loc 1 397 3 view .LVU125
 524 0022 0268     		ldr	r2, [r0]
 525 0024 1368     		ldr	r3, [r2]
ARM GAS  C:\Users\lzh\AppData\Local\Temp\cckGfb7j.s 			page 34


 526              	.LVL36:
 397:Drivers/STM32L0xx_HAL_Driver/Src/stm32l0xx_hal_uart_ex.c **** 
 527              		.loc 1 397 3 is_stmt 0 view .LVU126
 528 0026 2343     		orrs	r3, r4
 529 0028 1360     		str	r3, [r2]
 400:Drivers/STM32L0xx_HAL_Driver/Src/stm32l0xx_hal_uart_ex.c **** }
 530              		.loc 1 400 3 is_stmt 1 view .LVU127
 400:Drivers/STM32L0xx_HAL_Driver/Src/stm32l0xx_hal_uart_ex.c **** }
 531              		.loc 1 400 11 is_stmt 0 view .LVU128
 532 002a FFF7FEFF 		bl	UART_CheckIdleState
 533              	.LVL37:
 534              	.L21:
 401:Drivers/STM32L0xx_HAL_Driver/Src/stm32l0xx_hal_uart_ex.c **** 
 535              		.loc 1 401 1 view .LVU129
 536              		@ sp needed
 537 002e 70BD     		pop	{r4, r5, r6, pc}
 538              	.LVL38:
 539              	.L22:
 382:Drivers/STM32L0xx_HAL_Driver/Src/stm32l0xx_hal_uart_ex.c ****   }
 540              		.loc 1 382 12 view .LVU130
 541 0030 0120     		movs	r0, #1
 542              	.LVL39:
 382:Drivers/STM32L0xx_HAL_Driver/Src/stm32l0xx_hal_uart_ex.c ****   }
 543              		.loc 1 382 12 view .LVU131
 544 0032 FCE7     		b	.L21
 545              		.cfi_endproc
 546              	.LFE44:
 548              		.section	.text.HAL_UARTEx_StopModeWakeUpSourceConfig,"ax",%progbits
 549              		.align	1
 550              		.global	HAL_UARTEx_StopModeWakeUpSourceConfig
 551              		.syntax unified
 552              		.code	16
 553              		.thumb_func
 555              	HAL_UARTEx_StopModeWakeUpSourceConfig:
 556              	.LVL40:
 557              	.LFB45:
 416:Drivers/STM32L0xx_HAL_Driver/Src/stm32l0xx_hal_uart_ex.c ****   HAL_StatusTypeDef status = HAL_OK;
 558              		.loc 1 416 1 is_stmt 1 view -0
 559              		.cfi_startproc
 560              		@ args = 0, pretend = 0, frame = 8
 561              		@ frame_needed = 0, uses_anonymous_args = 0
 416:Drivers/STM32L0xx_HAL_Driver/Src/stm32l0xx_hal_uart_ex.c ****   HAL_StatusTypeDef status = HAL_OK;
 562              		.loc 1 416 1 is_stmt 0 view .LVU133
 563 0000 10B5     		push	{r4, lr}
 564              		.cfi_def_cfa_offset 8
 565              		.cfi_offset 4, -8
 566              		.cfi_offset 14, -4
 567 0002 84B0     		sub	sp, sp, #16
 568              		.cfi_def_cfa_offset 24
 569 0004 0400     		movs	r4, r0
 570 0006 0291     		str	r1, [sp, #8]
 571 0008 0392     		str	r2, [sp, #12]
 417:Drivers/STM32L0xx_HAL_Driver/Src/stm32l0xx_hal_uart_ex.c ****   uint32_t tickstart;
 572              		.loc 1 417 3 is_stmt 1 view .LVU134
 573              	.LVL41:
 418:Drivers/STM32L0xx_HAL_Driver/Src/stm32l0xx_hal_uart_ex.c **** 
 574              		.loc 1 418 3 view .LVU135
ARM GAS  C:\Users\lzh\AppData\Local\Temp\cckGfb7j.s 			page 35


 421:Drivers/STM32L0xx_HAL_Driver/Src/stm32l0xx_hal_uart_ex.c ****   /* check the wake-up selection parameter */
 575              		.loc 1 421 3 view .LVU136
 423:Drivers/STM32L0xx_HAL_Driver/Src/stm32l0xx_hal_uart_ex.c **** 
 576              		.loc 1 423 3 view .LVU137
 426:Drivers/STM32L0xx_HAL_Driver/Src/stm32l0xx_hal_uart_ex.c **** 
 577              		.loc 1 426 3 view .LVU138
 426:Drivers/STM32L0xx_HAL_Driver/Src/stm32l0xx_hal_uart_ex.c **** 
 578              		.loc 1 426 3 view .LVU139
 579 000a 7823     		movs	r3, #120
 580 000c C35C     		ldrb	r3, [r0, r3]
 581 000e 012B     		cmp	r3, #1
 582 0010 31D0     		beq	.L27
 426:Drivers/STM32L0xx_HAL_Driver/Src/stm32l0xx_hal_uart_ex.c **** 
 583              		.loc 1 426 3 discriminator 2 view .LVU140
 584 0012 0121     		movs	r1, #1
 585 0014 7823     		movs	r3, #120
 586 0016 C154     		strb	r1, [r0, r3]
 426:Drivers/STM32L0xx_HAL_Driver/Src/stm32l0xx_hal_uart_ex.c **** 
 587              		.loc 1 426 3 discriminator 2 view .LVU141
 428:Drivers/STM32L0xx_HAL_Driver/Src/stm32l0xx_hal_uart_ex.c **** 
 588              		.loc 1 428 3 discriminator 2 view .LVU142
 428:Drivers/STM32L0xx_HAL_Driver/Src/stm32l0xx_hal_uart_ex.c **** 
 589              		.loc 1 428 17 is_stmt 0 discriminator 2 view .LVU143
 590 0018 543B     		subs	r3, r3, #84
 591 001a C367     		str	r3, [r0, #124]
 431:Drivers/STM32L0xx_HAL_Driver/Src/stm32l0xx_hal_uart_ex.c **** 
 592              		.loc 1 431 3 is_stmt 1 discriminator 2 view .LVU144
 593 001c 0268     		ldr	r2, [r0]
 594 001e 1368     		ldr	r3, [r2]
 595 0020 8B43     		bics	r3, r1
 596 0022 1360     		str	r3, [r2]
 434:Drivers/STM32L0xx_HAL_Driver/Src/stm32l0xx_hal_uart_ex.c **** 
 597              		.loc 1 434 3 discriminator 2 view .LVU145
 598 0024 0168     		ldr	r1, [r0]
 599 0026 8B68     		ldr	r3, [r1, #8]
 600 0028 144A     		ldr	r2, .L30
 601 002a 1340     		ands	r3, r2
 602 002c 029A     		ldr	r2, [sp, #8]
 603 002e 1343     		orrs	r3, r2
 604 0030 8B60     		str	r3, [r1, #8]
 436:Drivers/STM32L0xx_HAL_Driver/Src/stm32l0xx_hal_uart_ex.c ****   {
 605              		.loc 1 436 3 discriminator 2 view .LVU146
 436:Drivers/STM32L0xx_HAL_Driver/Src/stm32l0xx_hal_uart_ex.c ****   {
 606              		.loc 1 436 6 is_stmt 0 discriminator 2 view .LVU147
 607 0032 002A     		cmp	r2, #0
 608 0034 14D0     		beq	.L29
 609              	.LVL42:
 610              	.L25:
 442:Drivers/STM32L0xx_HAL_Driver/Src/stm32l0xx_hal_uart_ex.c **** 
 611              		.loc 1 442 3 is_stmt 1 view .LVU148
 612 0036 2268     		ldr	r2, [r4]
 613 0038 1368     		ldr	r3, [r2]
 614 003a 0121     		movs	r1, #1
 615 003c 0B43     		orrs	r3, r1
 616 003e 1360     		str	r3, [r2]
 445:Drivers/STM32L0xx_HAL_Driver/Src/stm32l0xx_hal_uart_ex.c **** 
 617              		.loc 1 445 3 view .LVU149
ARM GAS  C:\Users\lzh\AppData\Local\Temp\cckGfb7j.s 			page 36


 445:Drivers/STM32L0xx_HAL_Driver/Src/stm32l0xx_hal_uart_ex.c **** 
 618              		.loc 1 445 15 is_stmt 0 view .LVU150
 619 0040 FFF7FEFF 		bl	HAL_GetTick
 620              	.LVL43:
 621 0044 0300     		movs	r3, r0
 622              	.LVL44:
 448:Drivers/STM32L0xx_HAL_Driver/Src/stm32l0xx_hal_uart_ex.c ****   {
 623              		.loc 1 448 3 is_stmt 1 view .LVU151
 448:Drivers/STM32L0xx_HAL_Driver/Src/stm32l0xx_hal_uart_ex.c ****   {
 624              		.loc 1 448 7 is_stmt 0 view .LVU152
 625 0046 8021     		movs	r1, #128
 626 0048 0D4A     		ldr	r2, .L30+4
 627 004a 0092     		str	r2, [sp]
 628 004c 0022     		movs	r2, #0
 629 004e C903     		lsls	r1, r1, #15
 630 0050 2000     		movs	r0, r4
 631              	.LVL45:
 448:Drivers/STM32L0xx_HAL_Driver/Src/stm32l0xx_hal_uart_ex.c ****   {
 632              		.loc 1 448 7 view .LVU153
 633 0052 FFF7FEFF 		bl	UART_WaitOnFlagUntilTimeout
 634              	.LVL46:
 448:Drivers/STM32L0xx_HAL_Driver/Src/stm32l0xx_hal_uart_ex.c ****   {
 635              		.loc 1 448 6 view .LVU154
 636 0056 0028     		cmp	r0, #0
 637 0058 07D1     		bne	.L28
 455:Drivers/STM32L0xx_HAL_Driver/Src/stm32l0xx_hal_uart_ex.c ****   }
 638              		.loc 1 455 5 is_stmt 1 view .LVU155
 455:Drivers/STM32L0xx_HAL_Driver/Src/stm32l0xx_hal_uart_ex.c ****   }
 639              		.loc 1 455 19 is_stmt 0 view .LVU156
 640 005a 2023     		movs	r3, #32
 641 005c E367     		str	r3, [r4, #124]
 642 005e 05E0     		b	.L26
 643              	.LVL47:
 644              	.L29:
 438:Drivers/STM32L0xx_HAL_Driver/Src/stm32l0xx_hal_uart_ex.c ****   }
 645              		.loc 1 438 5 is_stmt 1 view .LVU157
 646 0060 1100     		movs	r1, r2
 647 0062 039A     		ldr	r2, [sp, #12]
 648 0064 FFF7FEFF 		bl	UARTEx_Wakeup_AddressConfig
 649              	.LVL48:
 438:Drivers/STM32L0xx_HAL_Driver/Src/stm32l0xx_hal_uart_ex.c ****   }
 650              		.loc 1 438 5 is_stmt 0 view .LVU158
 651 0068 E5E7     		b	.L25
 652              	.LVL49:
 653              	.L28:
 450:Drivers/STM32L0xx_HAL_Driver/Src/stm32l0xx_hal_uart_ex.c ****   }
 654              		.loc 1 450 12 view .LVU159
 655 006a 0320     		movs	r0, #3
 656              	.L26:
 657              	.LVL50:
 459:Drivers/STM32L0xx_HAL_Driver/Src/stm32l0xx_hal_uart_ex.c **** 
 658              		.loc 1 459 3 is_stmt 1 view .LVU160
 459:Drivers/STM32L0xx_HAL_Driver/Src/stm32l0xx_hal_uart_ex.c **** 
 659              		.loc 1 459 3 view .LVU161
 660 006c 7823     		movs	r3, #120
 661 006e 0022     		movs	r2, #0
 662 0070 E254     		strb	r2, [r4, r3]
ARM GAS  C:\Users\lzh\AppData\Local\Temp\cckGfb7j.s 			page 37


 459:Drivers/STM32L0xx_HAL_Driver/Src/stm32l0xx_hal_uart_ex.c **** 
 663              		.loc 1 459 3 view .LVU162
 461:Drivers/STM32L0xx_HAL_Driver/Src/stm32l0xx_hal_uart_ex.c **** }
 664              		.loc 1 461 3 view .LVU163
 665              	.LVL51:
 666              	.L24:
 462:Drivers/STM32L0xx_HAL_Driver/Src/stm32l0xx_hal_uart_ex.c **** 
 667              		.loc 1 462 1 is_stmt 0 view .LVU164
 668 0072 04B0     		add	sp, sp, #16
 669              		@ sp needed
 670              	.LVL52:
 462:Drivers/STM32L0xx_HAL_Driver/Src/stm32l0xx_hal_uart_ex.c **** 
 671              		.loc 1 462 1 view .LVU165
 672 0074 10BD     		pop	{r4, pc}
 673              	.LVL53:
 674              	.L27:
 426:Drivers/STM32L0xx_HAL_Driver/Src/stm32l0xx_hal_uart_ex.c **** 
 675              		.loc 1 426 3 view .LVU166
 676 0076 0220     		movs	r0, #2
 677              	.LVL54:
 426:Drivers/STM32L0xx_HAL_Driver/Src/stm32l0xx_hal_uart_ex.c **** 
 678              		.loc 1 426 3 view .LVU167
 679 0078 FBE7     		b	.L24
 680              	.L31:
 681 007a C046     		.align	2
 682              	.L30:
 683 007c FFFFCFFF 		.word	-3145729
 684 0080 FFFFFF01 		.word	33554431
 685              		.cfi_endproc
 686              	.LFE45:
 688              		.section	.text.HAL_UARTEx_EnableStopMode,"ax",%progbits
 689              		.align	1
 690              		.global	HAL_UARTEx_EnableStopMode
 691              		.syntax unified
 692              		.code	16
 693              		.thumb_func
 695              	HAL_UARTEx_EnableStopMode:
 696              	.LVL55:
 697              	.LFB46:
 471:Drivers/STM32L0xx_HAL_Driver/Src/stm32l0xx_hal_uart_ex.c ****   /* Process Locked */
 698              		.loc 1 471 1 is_stmt 1 view -0
 699              		.cfi_startproc
 700              		@ args = 0, pretend = 0, frame = 0
 701              		@ frame_needed = 0, uses_anonymous_args = 0
 471:Drivers/STM32L0xx_HAL_Driver/Src/stm32l0xx_hal_uart_ex.c ****   /* Process Locked */
 702              		.loc 1 471 1 is_stmt 0 view .LVU169
 703 0000 10B5     		push	{r4, lr}
 704              		.cfi_def_cfa_offset 8
 705              		.cfi_offset 4, -8
 706              		.cfi_offset 14, -4
 473:Drivers/STM32L0xx_HAL_Driver/Src/stm32l0xx_hal_uart_ex.c **** 
 707              		.loc 1 473 3 is_stmt 1 view .LVU170
 473:Drivers/STM32L0xx_HAL_Driver/Src/stm32l0xx_hal_uart_ex.c **** 
 708              		.loc 1 473 3 view .LVU171
 709 0002 7823     		movs	r3, #120
 710 0004 C35C     		ldrb	r3, [r0, r3]
 711 0006 012B     		cmp	r3, #1
ARM GAS  C:\Users\lzh\AppData\Local\Temp\cckGfb7j.s 			page 38


 712 0008 11D0     		beq	.L34
 473:Drivers/STM32L0xx_HAL_Driver/Src/stm32l0xx_hal_uart_ex.c **** 
 713              		.loc 1 473 3 discriminator 2 view .LVU172
 714 000a 7822     		movs	r2, #120
 715 000c 0123     		movs	r3, #1
 716 000e 8354     		strb	r3, [r0, r2]
 473:Drivers/STM32L0xx_HAL_Driver/Src/stm32l0xx_hal_uart_ex.c **** 
 717              		.loc 1 473 3 discriminator 2 view .LVU173
 476:Drivers/STM32L0xx_HAL_Driver/Src/stm32l0xx_hal_uart_ex.c **** 
 718              		.loc 1 476 3 discriminator 2 view .LVU174
 719              	.LBB58:
 476:Drivers/STM32L0xx_HAL_Driver/Src/stm32l0xx_hal_uart_ex.c **** 
 720              		.loc 1 476 3 discriminator 2 view .LVU175
 476:Drivers/STM32L0xx_HAL_Driver/Src/stm32l0xx_hal_uart_ex.c **** 
 721              		.loc 1 476 3 discriminator 2 view .LVU176
 722              	.LBB59:
 723              	.LBI59:
 382:Drivers/CMSIS/Include/cmsis_gcc.h **** {
 724              		.loc 2 382 31 discriminator 2 view .LVU177
 725              	.LBB60:
 384:Drivers/CMSIS/Include/cmsis_gcc.h **** 
 726              		.loc 2 384 3 discriminator 2 view .LVU178
 386:Drivers/CMSIS/Include/cmsis_gcc.h ****   return(result);
 727              		.loc 2 386 3 discriminator 2 view .LVU179
 728              		.syntax divided
 729              	@ 386 "Drivers/CMSIS/Include/cmsis_gcc.h" 1
 730 0010 EFF3108C 		MRS ip, primask
 731              	@ 0 "" 2
 732              	.LVL56:
 387:Drivers/CMSIS/Include/cmsis_gcc.h **** }
 733              		.loc 2 387 3 discriminator 2 view .LVU180
 387:Drivers/CMSIS/Include/cmsis_gcc.h **** }
 734              		.loc 2 387 3 is_stmt 0 discriminator 2 view .LVU181
 735              		.thumb
 736              		.syntax unified
 737              	.LBE60:
 738              	.LBE59:
 476:Drivers/STM32L0xx_HAL_Driver/Src/stm32l0xx_hal_uart_ex.c **** 
 739              		.loc 1 476 3 is_stmt 1 discriminator 2 view .LVU182
 740              	.LBB61:
 741              	.LBI61:
 412:Drivers/CMSIS/Include/cmsis_gcc.h **** {
 742              		.loc 2 412 27 discriminator 2 view .LVU183
 743              	.LBB62:
 744              		.loc 2 414 3 discriminator 2 view .LVU184
 745              		.syntax divided
 746              	@ 414 "Drivers/CMSIS/Include/cmsis_gcc.h" 1
 747 0014 83F31088 		MSR primask, r3
 748              	@ 0 "" 2
 749              	.LVL57:
 750              		.loc 2 414 3 is_stmt 0 discriminator 2 view .LVU185
 751              		.thumb
 752              		.syntax unified
 753              	.LBE62:
 754              	.LBE61:
 476:Drivers/STM32L0xx_HAL_Driver/Src/stm32l0xx_hal_uart_ex.c **** 
 755              		.loc 1 476 3 is_stmt 1 discriminator 2 view .LVU186
ARM GAS  C:\Users\lzh\AppData\Local\Temp\cckGfb7j.s 			page 39


 756 0018 0168     		ldr	r1, [r0]
 757 001a 0B68     		ldr	r3, [r1]
 758 001c 0224     		movs	r4, #2
 759 001e 2343     		orrs	r3, r4
 760 0020 0B60     		str	r3, [r1]
 476:Drivers/STM32L0xx_HAL_Driver/Src/stm32l0xx_hal_uart_ex.c **** 
 761              		.loc 1 476 3 discriminator 2 view .LVU187
 762              	.LVL58:
 763              	.LBB63:
 764              	.LBI63:
 412:Drivers/CMSIS/Include/cmsis_gcc.h **** {
 765              		.loc 2 412 27 discriminator 2 view .LVU188
 766              	.LBB64:
 767              		.loc 2 414 3 discriminator 2 view .LVU189
 768              		.syntax divided
 769              	@ 414 "Drivers/CMSIS/Include/cmsis_gcc.h" 1
 770 0022 8CF31088 		MSR primask, ip
 771              	@ 0 "" 2
 772              	.LVL59:
 773              		.loc 2 414 3 is_stmt 0 discriminator 2 view .LVU190
 774              		.thumb
 775              		.syntax unified
 776              	.LBE64:
 777              	.LBE63:
 778              	.LBE58:
 476:Drivers/STM32L0xx_HAL_Driver/Src/stm32l0xx_hal_uart_ex.c **** 
 779              		.loc 1 476 3 is_stmt 1 discriminator 2 view .LVU191
 479:Drivers/STM32L0xx_HAL_Driver/Src/stm32l0xx_hal_uart_ex.c **** 
 780              		.loc 1 479 3 discriminator 2 view .LVU192
 479:Drivers/STM32L0xx_HAL_Driver/Src/stm32l0xx_hal_uart_ex.c **** 
 781              		.loc 1 479 3 discriminator 2 view .LVU193
 782 0026 0023     		movs	r3, #0
 783 0028 8354     		strb	r3, [r0, r2]
 479:Drivers/STM32L0xx_HAL_Driver/Src/stm32l0xx_hal_uart_ex.c **** 
 784              		.loc 1 479 3 discriminator 2 view .LVU194
 481:Drivers/STM32L0xx_HAL_Driver/Src/stm32l0xx_hal_uart_ex.c **** }
 785              		.loc 1 481 3 discriminator 2 view .LVU195
 481:Drivers/STM32L0xx_HAL_Driver/Src/stm32l0xx_hal_uart_ex.c **** }
 786              		.loc 1 481 10 is_stmt 0 discriminator 2 view .LVU196
 787 002a 0020     		movs	r0, #0
 788              	.LVL60:
 789              	.L33:
 482:Drivers/STM32L0xx_HAL_Driver/Src/stm32l0xx_hal_uart_ex.c **** 
 790              		.loc 1 482 1 view .LVU197
 791              		@ sp needed
 792 002c 10BD     		pop	{r4, pc}
 793              	.LVL61:
 794              	.L34:
 473:Drivers/STM32L0xx_HAL_Driver/Src/stm32l0xx_hal_uart_ex.c **** 
 795              		.loc 1 473 3 view .LVU198
 796 002e 0220     		movs	r0, #2
 797              	.LVL62:
 473:Drivers/STM32L0xx_HAL_Driver/Src/stm32l0xx_hal_uart_ex.c **** 
 798              		.loc 1 473 3 view .LVU199
 799 0030 FCE7     		b	.L33
 800              		.cfi_endproc
 801              	.LFE46:
ARM GAS  C:\Users\lzh\AppData\Local\Temp\cckGfb7j.s 			page 40


 803              		.section	.text.HAL_UARTEx_DisableStopMode,"ax",%progbits
 804              		.align	1
 805              		.global	HAL_UARTEx_DisableStopMode
 806              		.syntax unified
 807              		.code	16
 808              		.thumb_func
 810              	HAL_UARTEx_DisableStopMode:
 811              	.LVL63:
 812              	.LFB47:
 490:Drivers/STM32L0xx_HAL_Driver/Src/stm32l0xx_hal_uart_ex.c ****   /* Process Locked */
 813              		.loc 1 490 1 is_stmt 1 view -0
 814              		.cfi_startproc
 815              		@ args = 0, pretend = 0, frame = 0
 816              		@ frame_needed = 0, uses_anonymous_args = 0
 490:Drivers/STM32L0xx_HAL_Driver/Src/stm32l0xx_hal_uart_ex.c ****   /* Process Locked */
 817              		.loc 1 490 1 is_stmt 0 view .LVU201
 818 0000 10B5     		push	{r4, lr}
 819              		.cfi_def_cfa_offset 8
 820              		.cfi_offset 4, -8
 821              		.cfi_offset 14, -4
 492:Drivers/STM32L0xx_HAL_Driver/Src/stm32l0xx_hal_uart_ex.c **** 
 822              		.loc 1 492 3 is_stmt 1 view .LVU202
 492:Drivers/STM32L0xx_HAL_Driver/Src/stm32l0xx_hal_uart_ex.c **** 
 823              		.loc 1 492 3 view .LVU203
 824 0002 7823     		movs	r3, #120
 825 0004 C35C     		ldrb	r3, [r0, r3]
 826 0006 012B     		cmp	r3, #1
 827 0008 11D0     		beq	.L37
 492:Drivers/STM32L0xx_HAL_Driver/Src/stm32l0xx_hal_uart_ex.c **** 
 828              		.loc 1 492 3 discriminator 2 view .LVU204
 829 000a 7822     		movs	r2, #120
 830 000c 0123     		movs	r3, #1
 831 000e 8354     		strb	r3, [r0, r2]
 492:Drivers/STM32L0xx_HAL_Driver/Src/stm32l0xx_hal_uart_ex.c **** 
 832              		.loc 1 492 3 discriminator 2 view .LVU205
 495:Drivers/STM32L0xx_HAL_Driver/Src/stm32l0xx_hal_uart_ex.c **** 
 833              		.loc 1 495 3 discriminator 2 view .LVU206
 834              	.LBB65:
 495:Drivers/STM32L0xx_HAL_Driver/Src/stm32l0xx_hal_uart_ex.c **** 
 835              		.loc 1 495 3 discriminator 2 view .LVU207
 495:Drivers/STM32L0xx_HAL_Driver/Src/stm32l0xx_hal_uart_ex.c **** 
 836              		.loc 1 495 3 discriminator 2 view .LVU208
 837              	.LBB66:
 838              	.LBI66:
 382:Drivers/CMSIS/Include/cmsis_gcc.h **** {
 839              		.loc 2 382 31 discriminator 2 view .LVU209
 840              	.LBB67:
 384:Drivers/CMSIS/Include/cmsis_gcc.h **** 
 841              		.loc 2 384 3 discriminator 2 view .LVU210
 386:Drivers/CMSIS/Include/cmsis_gcc.h ****   return(result);
 842              		.loc 2 386 3 discriminator 2 view .LVU211
 843              		.syntax divided
 844              	@ 386 "Drivers/CMSIS/Include/cmsis_gcc.h" 1
 845 0010 EFF3108C 		MRS ip, primask
 846              	@ 0 "" 2
 847              	.LVL64:
 387:Drivers/CMSIS/Include/cmsis_gcc.h **** }
ARM GAS  C:\Users\lzh\AppData\Local\Temp\cckGfb7j.s 			page 41


 848              		.loc 2 387 3 discriminator 2 view .LVU212
 387:Drivers/CMSIS/Include/cmsis_gcc.h **** }
 849              		.loc 2 387 3 is_stmt 0 discriminator 2 view .LVU213
 850              		.thumb
 851              		.syntax unified
 852              	.LBE67:
 853              	.LBE66:
 495:Drivers/STM32L0xx_HAL_Driver/Src/stm32l0xx_hal_uart_ex.c **** 
 854              		.loc 1 495 3 is_stmt 1 discriminator 2 view .LVU214
 855              	.LBB68:
 856              	.LBI68:
 412:Drivers/CMSIS/Include/cmsis_gcc.h **** {
 857              		.loc 2 412 27 discriminator 2 view .LVU215
 858              	.LBB69:
 859              		.loc 2 414 3 discriminator 2 view .LVU216
 860              		.syntax divided
 861              	@ 414 "Drivers/CMSIS/Include/cmsis_gcc.h" 1
 862 0014 83F31088 		MSR primask, r3
 863              	@ 0 "" 2
 864              	.LVL65:
 865              		.loc 2 414 3 is_stmt 0 discriminator 2 view .LVU217
 866              		.thumb
 867              		.syntax unified
 868              	.LBE69:
 869              	.LBE68:
 495:Drivers/STM32L0xx_HAL_Driver/Src/stm32l0xx_hal_uart_ex.c **** 
 870              		.loc 1 495 3 is_stmt 1 discriminator 2 view .LVU218
 871 0018 0168     		ldr	r1, [r0]
 872 001a 0B68     		ldr	r3, [r1]
 873 001c 0224     		movs	r4, #2
 874 001e A343     		bics	r3, r4
 875 0020 0B60     		str	r3, [r1]
 495:Drivers/STM32L0xx_HAL_Driver/Src/stm32l0xx_hal_uart_ex.c **** 
 876              		.loc 1 495 3 discriminator 2 view .LVU219
 877              	.LVL66:
 878              	.LBB70:
 879              	.LBI70:
 412:Drivers/CMSIS/Include/cmsis_gcc.h **** {
 880              		.loc 2 412 27 discriminator 2 view .LVU220
 881              	.LBB71:
 882              		.loc 2 414 3 discriminator 2 view .LVU221
 883              		.syntax divided
 884              	@ 414 "Drivers/CMSIS/Include/cmsis_gcc.h" 1
 885 0022 8CF31088 		MSR primask, ip
 886              	@ 0 "" 2
 887              	.LVL67:
 888              		.loc 2 414 3 is_stmt 0 discriminator 2 view .LVU222
 889              		.thumb
 890              		.syntax unified
 891              	.LBE71:
 892              	.LBE70:
 893              	.LBE65:
 495:Drivers/STM32L0xx_HAL_Driver/Src/stm32l0xx_hal_uart_ex.c **** 
 894              		.loc 1 495 3 is_stmt 1 discriminator 2 view .LVU223
 498:Drivers/STM32L0xx_HAL_Driver/Src/stm32l0xx_hal_uart_ex.c **** 
 895              		.loc 1 498 3 discriminator 2 view .LVU224
 498:Drivers/STM32L0xx_HAL_Driver/Src/stm32l0xx_hal_uart_ex.c **** 
ARM GAS  C:\Users\lzh\AppData\Local\Temp\cckGfb7j.s 			page 42


 896              		.loc 1 498 3 discriminator 2 view .LVU225
 897 0026 0023     		movs	r3, #0
 898 0028 8354     		strb	r3, [r0, r2]
 498:Drivers/STM32L0xx_HAL_Driver/Src/stm32l0xx_hal_uart_ex.c **** 
 899              		.loc 1 498 3 discriminator 2 view .LVU226
 500:Drivers/STM32L0xx_HAL_Driver/Src/stm32l0xx_hal_uart_ex.c **** }
 900              		.loc 1 500 3 discriminator 2 view .LVU227
 500:Drivers/STM32L0xx_HAL_Driver/Src/stm32l0xx_hal_uart_ex.c **** }
 901              		.loc 1 500 10 is_stmt 0 discriminator 2 view .LVU228
 902 002a 0020     		movs	r0, #0
 903              	.LVL68:
 904              	.L36:
 501:Drivers/STM32L0xx_HAL_Driver/Src/stm32l0xx_hal_uart_ex.c **** 
 905              		.loc 1 501 1 view .LVU229
 906              		@ sp needed
 907 002c 10BD     		pop	{r4, pc}
 908              	.LVL69:
 909              	.L37:
 492:Drivers/STM32L0xx_HAL_Driver/Src/stm32l0xx_hal_uart_ex.c **** 
 910              		.loc 1 492 3 view .LVU230
 911 002e 0220     		movs	r0, #2
 912              	.LVL70:
 492:Drivers/STM32L0xx_HAL_Driver/Src/stm32l0xx_hal_uart_ex.c **** 
 913              		.loc 1 492 3 view .LVU231
 914 0030 FCE7     		b	.L36
 915              		.cfi_endproc
 916              	.LFE47:
 918              		.section	.text.HAL_UARTEx_ReceiveToIdle,"ax",%progbits
 919              		.align	1
 920              		.global	HAL_UARTEx_ReceiveToIdle
 921              		.syntax unified
 922              		.code	16
 923              		.thumb_func
 925              	HAL_UARTEx_ReceiveToIdle:
 926              	.LVL71:
 927              	.LFB48:
 527:Drivers/STM32L0xx_HAL_Driver/Src/stm32l0xx_hal_uart_ex.c ****   uint8_t  *pdata8bits;
 928              		.loc 1 527 1 is_stmt 1 view -0
 929              		.cfi_startproc
 930              		@ args = 4, pretend = 0, frame = 8
 931              		@ frame_needed = 0, uses_anonymous_args = 0
 527:Drivers/STM32L0xx_HAL_Driver/Src/stm32l0xx_hal_uart_ex.c ****   uint8_t  *pdata8bits;
 932              		.loc 1 527 1 is_stmt 0 view .LVU233
 933 0000 F0B5     		push	{r4, r5, r6, r7, lr}
 934              		.cfi_def_cfa_offset 20
 935              		.cfi_offset 4, -20
 936              		.cfi_offset 5, -16
 937              		.cfi_offset 6, -12
 938              		.cfi_offset 7, -8
 939              		.cfi_offset 14, -4
 940 0002 D646     		mov	lr, r10
 941 0004 4F46     		mov	r7, r9
 942 0006 4646     		mov	r6, r8
 943 0008 C0B5     		push	{r6, r7, lr}
 944              		.cfi_def_cfa_offset 32
 945              		.cfi_offset 8, -32
 946              		.cfi_offset 9, -28
ARM GAS  C:\Users\lzh\AppData\Local\Temp\cckGfb7j.s 			page 43


 947              		.cfi_offset 10, -24
 948 000a 82B0     		sub	sp, sp, #8
 949              		.cfi_def_cfa_offset 40
 950 000c 0400     		movs	r4, r0
 951 000e 0D00     		movs	r5, r1
 952 0010 9046     		mov	r8, r2
 953 0012 1F00     		movs	r7, r3
 954 0014 0A9E     		ldr	r6, [sp, #40]
 528:Drivers/STM32L0xx_HAL_Driver/Src/stm32l0xx_hal_uart_ex.c ****   uint16_t *pdata16bits;
 955              		.loc 1 528 3 is_stmt 1 view .LVU234
 529:Drivers/STM32L0xx_HAL_Driver/Src/stm32l0xx_hal_uart_ex.c ****   uint16_t uhMask;
 956              		.loc 1 529 3 view .LVU235
 530:Drivers/STM32L0xx_HAL_Driver/Src/stm32l0xx_hal_uart_ex.c ****   uint32_t tickstart;
 957              		.loc 1 530 3 view .LVU236
 531:Drivers/STM32L0xx_HAL_Driver/Src/stm32l0xx_hal_uart_ex.c **** 
 958              		.loc 1 531 3 view .LVU237
 534:Drivers/STM32L0xx_HAL_Driver/Src/stm32l0xx_hal_uart_ex.c ****   {
 959              		.loc 1 534 3 view .LVU238
 534:Drivers/STM32L0xx_HAL_Driver/Src/stm32l0xx_hal_uart_ex.c ****   {
 960              		.loc 1 534 12 is_stmt 0 view .LVU239
 961 0016 8023     		movs	r3, #128
 962              	.LVL72:
 534:Drivers/STM32L0xx_HAL_Driver/Src/stm32l0xx_hal_uart_ex.c ****   {
 963              		.loc 1 534 12 view .LVU240
 964 0018 C358     		ldr	r3, [r0, r3]
 534:Drivers/STM32L0xx_HAL_Driver/Src/stm32l0xx_hal_uart_ex.c ****   {
 965              		.loc 1 534 6 view .LVU241
 966 001a 202B     		cmp	r3, #32
 967 001c 00D0     		beq	.LCB814
 968 001e B1E0     		b	.L57	@long jump
 969              	.LCB814:
 536:Drivers/STM32L0xx_HAL_Driver/Src/stm32l0xx_hal_uart_ex.c ****     {
 970              		.loc 1 536 5 is_stmt 1 view .LVU242
 536:Drivers/STM32L0xx_HAL_Driver/Src/stm32l0xx_hal_uart_ex.c ****     {
 971              		.loc 1 536 8 is_stmt 0 view .LVU243
 972 0020 0029     		cmp	r1, #0
 973 0022 00D1     		bne	.LCB817
 974 0024 B5E0     		b	.L58	@long jump
 975              	.LCB817:
 536:Drivers/STM32L0xx_HAL_Driver/Src/stm32l0xx_hal_uart_ex.c ****     {
 976              		.loc 1 536 25 discriminator 1 view .LVU244
 977 0026 002A     		cmp	r2, #0
 978 0028 00D1     		bne	.LCB819
 979 002a B4E0     		b	.L59	@long jump
 980              	.LCB819:
 544:Drivers/STM32L0xx_HAL_Driver/Src/stm32l0xx_hal_uart_ex.c ****     {
 981              		.loc 1 544 5 is_stmt 1 view .LVU245
 544:Drivers/STM32L0xx_HAL_Driver/Src/stm32l0xx_hal_uart_ex.c ****     {
 982              		.loc 1 544 21 is_stmt 0 view .LVU246
 983 002c 8268     		ldr	r2, [r0, #8]
 984              	.LVL73:
 544:Drivers/STM32L0xx_HAL_Driver/Src/stm32l0xx_hal_uart_ex.c ****     {
 985              		.loc 1 544 8 view .LVU247
 986 002e 8023     		movs	r3, #128
 987 0030 5B01     		lsls	r3, r3, #5
 988 0032 9A42     		cmp	r2, r3
 989 0034 05D1     		bne	.L40
ARM GAS  C:\Users\lzh\AppData\Local\Temp\cckGfb7j.s 			page 44


 544:Drivers/STM32L0xx_HAL_Driver/Src/stm32l0xx_hal_uart_ex.c ****     {
 990              		.loc 1 544 71 discriminator 1 view .LVU248
 991 0036 0369     		ldr	r3, [r0, #16]
 544:Drivers/STM32L0xx_HAL_Driver/Src/stm32l0xx_hal_uart_ex.c ****     {
 992              		.loc 1 544 56 discriminator 1 view .LVU249
 993 0038 002B     		cmp	r3, #0
 994 003a 02D1     		bne	.L40
 546:Drivers/STM32L0xx_HAL_Driver/Src/stm32l0xx_hal_uart_ex.c ****       {
 995              		.loc 1 546 7 is_stmt 1 view .LVU250
 546:Drivers/STM32L0xx_HAL_Driver/Src/stm32l0xx_hal_uart_ex.c ****       {
 996              		.loc 1 546 10 is_stmt 0 view .LVU251
 997 003c CB07     		lsls	r3, r1, #31
 998 003e 00D5     		bpl	.LCB834
 999 0040 ABE0     		b	.L60	@long jump
 1000              	.LCB834:
 1001              	.L40:
 552:Drivers/STM32L0xx_HAL_Driver/Src/stm32l0xx_hal_uart_ex.c ****     huart->RxState = HAL_UART_STATE_BUSY_RX;
 1002              		.loc 1 552 5 is_stmt 1 view .LVU252
 552:Drivers/STM32L0xx_HAL_Driver/Src/stm32l0xx_hal_uart_ex.c ****     huart->RxState = HAL_UART_STATE_BUSY_RX;
 1003              		.loc 1 552 22 is_stmt 0 view .LVU253
 1004 0042 0023     		movs	r3, #0
 1005 0044 8422     		movs	r2, #132
 1006 0046 A350     		str	r3, [r4, r2]
 553:Drivers/STM32L0xx_HAL_Driver/Src/stm32l0xx_hal_uart_ex.c ****     huart->ReceptionType = HAL_UART_RECEPTION_TOIDLE;
 1007              		.loc 1 553 5 is_stmt 1 view .LVU254
 553:Drivers/STM32L0xx_HAL_Driver/Src/stm32l0xx_hal_uart_ex.c ****     huart->ReceptionType = HAL_UART_RECEPTION_TOIDLE;
 1008              		.loc 1 553 20 is_stmt 0 view .LVU255
 1009 0048 043A     		subs	r2, r2, #4
 1010 004a 2221     		movs	r1, #34
 1011              	.LVL74:
 553:Drivers/STM32L0xx_HAL_Driver/Src/stm32l0xx_hal_uart_ex.c ****     huart->ReceptionType = HAL_UART_RECEPTION_TOIDLE;
 1012              		.loc 1 553 20 view .LVU256
 1013 004c A150     		str	r1, [r4, r2]
 554:Drivers/STM32L0xx_HAL_Driver/Src/stm32l0xx_hal_uart_ex.c ****     huart->RxEventType = HAL_UART_RXEVENT_TC;
 1014              		.loc 1 554 5 is_stmt 1 view .LVU257
 554:Drivers/STM32L0xx_HAL_Driver/Src/stm32l0xx_hal_uart_ex.c ****     huart->RxEventType = HAL_UART_RXEVENT_TC;
 1015              		.loc 1 554 26 is_stmt 0 view .LVU258
 1016 004e 7F3A     		subs	r2, r2, #127
 1017 0050 2266     		str	r2, [r4, #96]
 555:Drivers/STM32L0xx_HAL_Driver/Src/stm32l0xx_hal_uart_ex.c **** 
 1018              		.loc 1 555 5 is_stmt 1 view .LVU259
 555:Drivers/STM32L0xx_HAL_Driver/Src/stm32l0xx_hal_uart_ex.c **** 
 1019              		.loc 1 555 24 is_stmt 0 view .LVU260
 1020 0052 6366     		str	r3, [r4, #100]
 558:Drivers/STM32L0xx_HAL_Driver/Src/stm32l0xx_hal_uart_ex.c **** 
 1021              		.loc 1 558 5 is_stmt 1 view .LVU261
 558:Drivers/STM32L0xx_HAL_Driver/Src/stm32l0xx_hal_uart_ex.c **** 
 1022              		.loc 1 558 17 is_stmt 0 view .LVU262
 1023 0054 FFF7FEFF 		bl	HAL_GetTick
 1024              	.LVL75:
 558:Drivers/STM32L0xx_HAL_Driver/Src/stm32l0xx_hal_uart_ex.c **** 
 1025              		.loc 1 558 17 view .LVU263
 1026 0058 8146     		mov	r9, r0
 1027              	.LVL76:
 560:Drivers/STM32L0xx_HAL_Driver/Src/stm32l0xx_hal_uart_ex.c ****     huart->RxXferCount = Size;
 1028              		.loc 1 560 5 is_stmt 1 view .LVU264
 560:Drivers/STM32L0xx_HAL_Driver/Src/stm32l0xx_hal_uart_ex.c ****     huart->RxXferCount = Size;
ARM GAS  C:\Users\lzh\AppData\Local\Temp\cckGfb7j.s 			page 45


 1029              		.loc 1 560 24 is_stmt 0 view .LVU265
 1030 005a 5823     		movs	r3, #88
 1031 005c 4246     		mov	r2, r8
 1032 005e E252     		strh	r2, [r4, r3]
 561:Drivers/STM32L0xx_HAL_Driver/Src/stm32l0xx_hal_uart_ex.c **** 
 1033              		.loc 1 561 5 is_stmt 1 view .LVU266
 561:Drivers/STM32L0xx_HAL_Driver/Src/stm32l0xx_hal_uart_ex.c **** 
 1034              		.loc 1 561 24 is_stmt 0 view .LVU267
 1035 0060 0233     		adds	r3, r3, #2
 1036 0062 E252     		strh	r2, [r4, r3]
 564:Drivers/STM32L0xx_HAL_Driver/Src/stm32l0xx_hal_uart_ex.c ****     uhMask = huart->Mask;
 1037              		.loc 1 564 5 is_stmt 1 view .LVU268
 564:Drivers/STM32L0xx_HAL_Driver/Src/stm32l0xx_hal_uart_ex.c ****     uhMask = huart->Mask;
 1038              		.loc 1 564 5 view .LVU269
 1039 0064 A368     		ldr	r3, [r4, #8]
 1040 0066 8022     		movs	r2, #128
 1041 0068 5201     		lsls	r2, r2, #5
 1042 006a 9342     		cmp	r3, r2
 1043 006c 08D0     		beq	.L66
 564:Drivers/STM32L0xx_HAL_Driver/Src/stm32l0xx_hal_uart_ex.c ****     uhMask = huart->Mask;
 1044              		.loc 1 564 5 discriminator 2 view .LVU270
 1045 006e 002B     		cmp	r3, #0
 1046 0070 15D1     		bne	.L44
 564:Drivers/STM32L0xx_HAL_Driver/Src/stm32l0xx_hal_uart_ex.c ****     uhMask = huart->Mask;
 1047              		.loc 1 564 5 discriminator 5 view .LVU271
 1048 0072 2269     		ldr	r2, [r4, #16]
 1049 0074 002A     		cmp	r2, #0
 1050 0076 0ED1     		bne	.L45
 564:Drivers/STM32L0xx_HAL_Driver/Src/stm32l0xx_hal_uart_ex.c ****     uhMask = huart->Mask;
 1051              		.loc 1 564 5 discriminator 7 view .LVU272
 1052 0078 5C32     		adds	r2, r2, #92
 1053 007a FF21     		movs	r1, #255
 1054 007c A152     		strh	r1, [r4, r2]
 1055 007e 15E0     		b	.L43
 1056              	.L66:
 564:Drivers/STM32L0xx_HAL_Driver/Src/stm32l0xx_hal_uart_ex.c ****     uhMask = huart->Mask;
 1057              		.loc 1 564 5 discriminator 1 view .LVU273
 1058 0080 2269     		ldr	r2, [r4, #16]
 1059 0082 002A     		cmp	r2, #0
 1060 0084 03D1     		bne	.L42
 564:Drivers/STM32L0xx_HAL_Driver/Src/stm32l0xx_hal_uart_ex.c ****     uhMask = huart->Mask;
 1061              		.loc 1 564 5 discriminator 3 view .LVU274
 1062 0086 5C32     		adds	r2, r2, #92
 1063 0088 4549     		ldr	r1, .L73
 1064 008a A152     		strh	r1, [r4, r2]
 1065 008c 0EE0     		b	.L43
 1066              	.L42:
 564:Drivers/STM32L0xx_HAL_Driver/Src/stm32l0xx_hal_uart_ex.c ****     uhMask = huart->Mask;
 1067              		.loc 1 564 5 discriminator 4 view .LVU275
 1068 008e 5C22     		movs	r2, #92
 1069 0090 FF21     		movs	r1, #255
 1070 0092 A152     		strh	r1, [r4, r2]
 1071 0094 0AE0     		b	.L43
 1072              	.L45:
 564:Drivers/STM32L0xx_HAL_Driver/Src/stm32l0xx_hal_uart_ex.c ****     uhMask = huart->Mask;
 1073              		.loc 1 564 5 discriminator 8 view .LVU276
 1074 0096 5C22     		movs	r2, #92
ARM GAS  C:\Users\lzh\AppData\Local\Temp\cckGfb7j.s 			page 46


 1075 0098 7F21     		movs	r1, #127
 1076 009a A152     		strh	r1, [r4, r2]
 1077 009c 06E0     		b	.L43
 1078              	.L44:
 564:Drivers/STM32L0xx_HAL_Driver/Src/stm32l0xx_hal_uart_ex.c ****     uhMask = huart->Mask;
 1079              		.loc 1 564 5 discriminator 6 view .LVU277
 1080 009e 8022     		movs	r2, #128
 1081 00a0 5205     		lsls	r2, r2, #21
 1082 00a2 9342     		cmp	r3, r2
 1083 00a4 0ED0     		beq	.L67
 564:Drivers/STM32L0xx_HAL_Driver/Src/stm32l0xx_hal_uart_ex.c ****     uhMask = huart->Mask;
 1084              		.loc 1 564 5 discriminator 10 view .LVU278
 1085 00a6 5C22     		movs	r2, #92
 1086 00a8 0021     		movs	r1, #0
 1087 00aa A152     		strh	r1, [r4, r2]
 1088              	.L43:
 564:Drivers/STM32L0xx_HAL_Driver/Src/stm32l0xx_hal_uart_ex.c ****     uhMask = huart->Mask;
 1089              		.loc 1 564 5 discriminator 13 view .LVU279
 565:Drivers/STM32L0xx_HAL_Driver/Src/stm32l0xx_hal_uart_ex.c **** 
 1090              		.loc 1 565 5 discriminator 13 view .LVU280
 565:Drivers/STM32L0xx_HAL_Driver/Src/stm32l0xx_hal_uart_ex.c **** 
 1091              		.loc 1 565 12 is_stmt 0 discriminator 13 view .LVU281
 1092 00ac 5C22     		movs	r2, #92
 1093 00ae A25A     		ldrh	r2, [r4, r2]
 1094 00b0 0192     		str	r2, [sp, #4]
 1095              	.LVL77:
 568:Drivers/STM32L0xx_HAL_Driver/Src/stm32l0xx_hal_uart_ex.c ****     {
 1096              		.loc 1 568 5 is_stmt 1 discriminator 13 view .LVU282
 568:Drivers/STM32L0xx_HAL_Driver/Src/stm32l0xx_hal_uart_ex.c ****     {
 1097              		.loc 1 568 8 is_stmt 0 discriminator 13 view .LVU283
 1098 00b2 8022     		movs	r2, #128
 1099 00b4 5201     		lsls	r2, r2, #5
 1100 00b6 9342     		cmp	r3, r2
 1101 00b8 0FD0     		beq	.L68
 576:Drivers/STM32L0xx_HAL_Driver/Src/stm32l0xx_hal_uart_ex.c ****     }
 1102              		.loc 1 576 19 view .LVU284
 1103 00ba 0023     		movs	r3, #0
 1104 00bc 9A46     		mov	r10, r3
 1105              	.LVL78:
 1106              	.L48:
 580:Drivers/STM32L0xx_HAL_Driver/Src/stm32l0xx_hal_uart_ex.c **** 
 1107              		.loc 1 580 5 is_stmt 1 view .LVU285
 580:Drivers/STM32L0xx_HAL_Driver/Src/stm32l0xx_hal_uart_ex.c **** 
 1108              		.loc 1 580 12 is_stmt 0 view .LVU286
 1109 00be 0023     		movs	r3, #0
 1110 00c0 3B80     		strh	r3, [r7]
 583:Drivers/STM32L0xx_HAL_Driver/Src/stm32l0xx_hal_uart_ex.c ****     {
 1111              		.loc 1 583 5 is_stmt 1 view .LVU287
 583:Drivers/STM32L0xx_HAL_Driver/Src/stm32l0xx_hal_uart_ex.c ****     {
 1112              		.loc 1 583 11 is_stmt 0 view .LVU288
 1113 00c2 2CE0     		b	.L49
 1114              	.LVL79:
 1115              	.L67:
 564:Drivers/STM32L0xx_HAL_Driver/Src/stm32l0xx_hal_uart_ex.c ****     uhMask = huart->Mask;
 1116              		.loc 1 564 5 is_stmt 1 discriminator 9 view .LVU289
 1117 00c4 2269     		ldr	r2, [r4, #16]
 1118 00c6 002A     		cmp	r2, #0
ARM GAS  C:\Users\lzh\AppData\Local\Temp\cckGfb7j.s 			page 47


 1119 00c8 03D1     		bne	.L47
 564:Drivers/STM32L0xx_HAL_Driver/Src/stm32l0xx_hal_uart_ex.c ****     uhMask = huart->Mask;
 1120              		.loc 1 564 5 discriminator 11 view .LVU290
 1121 00ca 5C32     		adds	r2, r2, #92
 1122 00cc 7F21     		movs	r1, #127
 1123 00ce A152     		strh	r1, [r4, r2]
 1124 00d0 ECE7     		b	.L43
 1125              	.L47:
 564:Drivers/STM32L0xx_HAL_Driver/Src/stm32l0xx_hal_uart_ex.c ****     uhMask = huart->Mask;
 1126              		.loc 1 564 5 discriminator 12 view .LVU291
 1127 00d2 5C22     		movs	r2, #92
 1128 00d4 3F21     		movs	r1, #63
 1129 00d6 A152     		strh	r1, [r4, r2]
 1130 00d8 E8E7     		b	.L43
 1131              	.LVL80:
 1132              	.L68:
 568:Drivers/STM32L0xx_HAL_Driver/Src/stm32l0xx_hal_uart_ex.c ****     {
 1133              		.loc 1 568 71 is_stmt 0 discriminator 1 view .LVU292
 1134 00da 2369     		ldr	r3, [r4, #16]
 568:Drivers/STM32L0xx_HAL_Driver/Src/stm32l0xx_hal_uart_ex.c ****     {
 1135              		.loc 1 568 56 discriminator 1 view .LVU293
 1136 00dc 002B     		cmp	r3, #0
 1137 00de 02D0     		beq	.L62
 576:Drivers/STM32L0xx_HAL_Driver/Src/stm32l0xx_hal_uart_ex.c ****     }
 1138              		.loc 1 576 19 view .LVU294
 1139 00e0 0023     		movs	r3, #0
 1140 00e2 9A46     		mov	r10, r3
 1141 00e4 EBE7     		b	.L48
 1142              	.L62:
 571:Drivers/STM32L0xx_HAL_Driver/Src/stm32l0xx_hal_uart_ex.c ****     }
 1143              		.loc 1 571 19 view .LVU295
 1144 00e6 AA46     		mov	r10, r5
 570:Drivers/STM32L0xx_HAL_Driver/Src/stm32l0xx_hal_uart_ex.c ****       pdata16bits = (uint16_t *) pData;
 1145              		.loc 1 570 19 view .LVU296
 1146 00e8 0025     		movs	r5, #0
 1147              	.LVL81:
 570:Drivers/STM32L0xx_HAL_Driver/Src/stm32l0xx_hal_uart_ex.c ****       pdata16bits = (uint16_t *) pData;
 1148              		.loc 1 570 19 view .LVU297
 1149 00ea E8E7     		b	.L48
 1150              	.LVL82:
 1151              	.L71:
 595:Drivers/STM32L0xx_HAL_Driver/Src/stm32l0xx_hal_uart_ex.c ****           huart->RxState = HAL_UART_STATE_READY;
 1152              		.loc 1 595 11 is_stmt 1 view .LVU298
 595:Drivers/STM32L0xx_HAL_Driver/Src/stm32l0xx_hal_uart_ex.c ****           huart->RxState = HAL_UART_STATE_READY;
 1153              		.loc 1 595 30 is_stmt 0 view .LVU299
 1154 00ec 0223     		movs	r3, #2
 1155 00ee 6366     		str	r3, [r4, #100]
 596:Drivers/STM32L0xx_HAL_Driver/Src/stm32l0xx_hal_uart_ex.c **** 
 1156              		.loc 1 596 11 is_stmt 1 view .LVU300
 596:Drivers/STM32L0xx_HAL_Driver/Src/stm32l0xx_hal_uart_ex.c **** 
 1157              		.loc 1 596 26 is_stmt 0 view .LVU301
 1158 00f0 7E33     		adds	r3, r3, #126
 1159 00f2 2022     		movs	r2, #32
 1160 00f4 E250     		str	r2, [r4, r3]
 598:Drivers/STM32L0xx_HAL_Driver/Src/stm32l0xx_hal_uart_ex.c ****         }
 1161              		.loc 1 598 11 is_stmt 1 view .LVU302
 598:Drivers/STM32L0xx_HAL_Driver/Src/stm32l0xx_hal_uart_ex.c ****         }
ARM GAS  C:\Users\lzh\AppData\Local\Temp\cckGfb7j.s 			page 48


 1162              		.loc 1 598 18 is_stmt 0 view .LVU303
 1163 00f6 0020     		movs	r0, #0
 1164 00f8 45E0     		b	.L39
 1165              	.L72:
 607:Drivers/STM32L0xx_HAL_Driver/Src/stm32l0xx_hal_uart_ex.c ****           pdata16bits++;
 1166              		.loc 1 607 11 is_stmt 1 view .LVU304
 607:Drivers/STM32L0xx_HAL_Driver/Src/stm32l0xx_hal_uart_ex.c ****           pdata16bits++;
 1167              		.loc 1 607 52 is_stmt 0 view .LVU305
 1168 00fa 536A     		ldr	r3, [r2, #36]
 607:Drivers/STM32L0xx_HAL_Driver/Src/stm32l0xx_hal_uart_ex.c ****           pdata16bits++;
 1169              		.loc 1 607 26 view .LVU306
 1170 00fc 019A     		ldr	r2, [sp, #4]
 1171 00fe 1340     		ands	r3, r2
 607:Drivers/STM32L0xx_HAL_Driver/Src/stm32l0xx_hal_uart_ex.c ****           pdata16bits++;
 1172              		.loc 1 607 24 view .LVU307
 1173 0100 5246     		mov	r2, r10
 1174 0102 1380     		strh	r3, [r2]
 608:Drivers/STM32L0xx_HAL_Driver/Src/stm32l0xx_hal_uart_ex.c ****         }
 1175              		.loc 1 608 11 is_stmt 1 view .LVU308
 608:Drivers/STM32L0xx_HAL_Driver/Src/stm32l0xx_hal_uart_ex.c ****         }
 1176              		.loc 1 608 22 is_stmt 0 view .LVU309
 1177 0104 0223     		movs	r3, #2
 1178 0106 9C46     		mov	ip, r3
 1179 0108 E244     		add	r10, r10, ip
 1180              	.LVL83:
 1181              	.L53:
 616:Drivers/STM32L0xx_HAL_Driver/Src/stm32l0xx_hal_uart_ex.c ****         huart->RxXferCount--;
 1182              		.loc 1 616 9 is_stmt 1 view .LVU310
 1183 010a 3B88     		ldrh	r3, [r7]
 616:Drivers/STM32L0xx_HAL_Driver/Src/stm32l0xx_hal_uart_ex.c ****         huart->RxXferCount--;
 1184              		.loc 1 616 16 is_stmt 0 view .LVU311
 1185 010c 0133     		adds	r3, r3, #1
 1186 010e 3B80     		strh	r3, [r7]
 617:Drivers/STM32L0xx_HAL_Driver/Src/stm32l0xx_hal_uart_ex.c ****       }
 1187              		.loc 1 617 9 is_stmt 1 view .LVU312
 617:Drivers/STM32L0xx_HAL_Driver/Src/stm32l0xx_hal_uart_ex.c ****       }
 1188              		.loc 1 617 14 is_stmt 0 view .LVU313
 1189 0110 5A22     		movs	r2, #90
 1190 0112 A35A     		ldrh	r3, [r4, r2]
 617:Drivers/STM32L0xx_HAL_Driver/Src/stm32l0xx_hal_uart_ex.c ****       }
 1191              		.loc 1 617 27 view .LVU314
 1192 0114 013B     		subs	r3, r3, #1
 1193 0116 9BB2     		uxth	r3, r3
 1194 0118 A352     		strh	r3, [r4, r2]
 1195              	.L51:
 621:Drivers/STM32L0xx_HAL_Driver/Src/stm32l0xx_hal_uart_ex.c ****       {
 1196              		.loc 1 621 7 is_stmt 1 view .LVU315
 621:Drivers/STM32L0xx_HAL_Driver/Src/stm32l0xx_hal_uart_ex.c ****       {
 1197              		.loc 1 621 10 is_stmt 0 view .LVU316
 1198 011a 731C     		adds	r3, r6, #1
 1199 011c 1AD1     		bne	.L69
 1200              	.L49:
 583:Drivers/STM32L0xx_HAL_Driver/Src/stm32l0xx_hal_uart_ex.c ****     {
 1201              		.loc 1 583 31 is_stmt 1 view .LVU317
 583:Drivers/STM32L0xx_HAL_Driver/Src/stm32l0xx_hal_uart_ex.c ****     {
 1202              		.loc 1 583 17 is_stmt 0 view .LVU318
 1203 011e 5A23     		movs	r3, #90
ARM GAS  C:\Users\lzh\AppData\Local\Temp\cckGfb7j.s 			page 49


 1204 0120 E25A     		ldrh	r2, [r4, r3]
 1205 0122 92B2     		uxth	r2, r2
 583:Drivers/STM32L0xx_HAL_Driver/Src/stm32l0xx_hal_uart_ex.c ****     {
 1206              		.loc 1 583 31 view .LVU319
 1207 0124 002A     		cmp	r2, #0
 1208 0126 22D0     		beq	.L70
 586:Drivers/STM32L0xx_HAL_Driver/Src/stm32l0xx_hal_uart_ex.c ****       {
 1209              		.loc 1 586 7 is_stmt 1 view .LVU320
 586:Drivers/STM32L0xx_HAL_Driver/Src/stm32l0xx_hal_uart_ex.c ****       {
 1210              		.loc 1 586 11 is_stmt 0 view .LVU321
 1211 0128 2268     		ldr	r2, [r4]
 1212 012a D369     		ldr	r3, [r2, #28]
 586:Drivers/STM32L0xx_HAL_Driver/Src/stm32l0xx_hal_uart_ex.c ****       {
 1213              		.loc 1 586 10 view .LVU322
 1214 012c DB06     		lsls	r3, r3, #27
 1215 012e 04D5     		bpl	.L50
 589:Drivers/STM32L0xx_HAL_Driver/Src/stm32l0xx_hal_uart_ex.c **** 
 1216              		.loc 1 589 9 is_stmt 1 view .LVU323
 1217 0130 1023     		movs	r3, #16
 1218 0132 1362     		str	r3, [r2, #32]
 593:Drivers/STM32L0xx_HAL_Driver/Src/stm32l0xx_hal_uart_ex.c ****         {
 1219              		.loc 1 593 9 view .LVU324
 593:Drivers/STM32L0xx_HAL_Driver/Src/stm32l0xx_hal_uart_ex.c ****         {
 1220              		.loc 1 593 13 is_stmt 0 view .LVU325
 1221 0134 3B88     		ldrh	r3, [r7]
 593:Drivers/STM32L0xx_HAL_Driver/Src/stm32l0xx_hal_uart_ex.c ****         {
 1222              		.loc 1 593 12 view .LVU326
 1223 0136 002B     		cmp	r3, #0
 1224 0138 D8D1     		bne	.L71
 1225              	.L50:
 603:Drivers/STM32L0xx_HAL_Driver/Src/stm32l0xx_hal_uart_ex.c ****       {
 1226              		.loc 1 603 7 is_stmt 1 view .LVU327
 603:Drivers/STM32L0xx_HAL_Driver/Src/stm32l0xx_hal_uart_ex.c ****       {
 1227              		.loc 1 603 11 is_stmt 0 view .LVU328
 1228 013a 2268     		ldr	r2, [r4]
 1229 013c D369     		ldr	r3, [r2, #28]
 603:Drivers/STM32L0xx_HAL_Driver/Src/stm32l0xx_hal_uart_ex.c ****       {
 1230              		.loc 1 603 10 view .LVU329
 1231 013e 9B06     		lsls	r3, r3, #26
 1232 0140 EBD5     		bpl	.L51
 605:Drivers/STM32L0xx_HAL_Driver/Src/stm32l0xx_hal_uart_ex.c ****         {
 1233              		.loc 1 605 9 is_stmt 1 view .LVU330
 605:Drivers/STM32L0xx_HAL_Driver/Src/stm32l0xx_hal_uart_ex.c ****         {
 1234              		.loc 1 605 12 is_stmt 0 view .LVU331
 1235 0142 002D     		cmp	r5, #0
 1236 0144 D9D0     		beq	.L72
 612:Drivers/STM32L0xx_HAL_Driver/Src/stm32l0xx_hal_uart_ex.c ****           pdata8bits++;
 1237              		.loc 1 612 11 is_stmt 1 view .LVU332
 612:Drivers/STM32L0xx_HAL_Driver/Src/stm32l0xx_hal_uart_ex.c ****           pdata8bits++;
 1238              		.loc 1 612 50 is_stmt 0 view .LVU333
 1239 0146 536A     		ldr	r3, [r2, #36]
 612:Drivers/STM32L0xx_HAL_Driver/Src/stm32l0xx_hal_uart_ex.c ****           pdata8bits++;
 1240              		.loc 1 612 58 view .LVU334
 1241 0148 6A46     		mov	r2, sp
 1242 014a 1279     		ldrb	r2, [r2, #4]
 612:Drivers/STM32L0xx_HAL_Driver/Src/stm32l0xx_hal_uart_ex.c ****           pdata8bits++;
 1243              		.loc 1 612 25 view .LVU335
ARM GAS  C:\Users\lzh\AppData\Local\Temp\cckGfb7j.s 			page 50


 1244 014c 1340     		ands	r3, r2
 612:Drivers/STM32L0xx_HAL_Driver/Src/stm32l0xx_hal_uart_ex.c ****           pdata8bits++;
 1245              		.loc 1 612 23 view .LVU336
 1246 014e 2B70     		strb	r3, [r5]
 613:Drivers/STM32L0xx_HAL_Driver/Src/stm32l0xx_hal_uart_ex.c ****         }
 1247              		.loc 1 613 11 is_stmt 1 view .LVU337
 613:Drivers/STM32L0xx_HAL_Driver/Src/stm32l0xx_hal_uart_ex.c ****         }
 1248              		.loc 1 613 21 is_stmt 0 view .LVU338
 1249 0150 0135     		adds	r5, r5, #1
 1250              	.LVL84:
 613:Drivers/STM32L0xx_HAL_Driver/Src/stm32l0xx_hal_uart_ex.c ****         }
 1251              		.loc 1 613 21 view .LVU339
 1252 0152 DAE7     		b	.L53
 1253              	.L69:
 623:Drivers/STM32L0xx_HAL_Driver/Src/stm32l0xx_hal_uart_ex.c ****         {
 1254              		.loc 1 623 9 is_stmt 1 view .LVU340
 623:Drivers/STM32L0xx_HAL_Driver/Src/stm32l0xx_hal_uart_ex.c ****         {
 1255              		.loc 1 623 15 is_stmt 0 view .LVU341
 1256 0154 FFF7FEFF 		bl	HAL_GetTick
 1257              	.LVL85:
 623:Drivers/STM32L0xx_HAL_Driver/Src/stm32l0xx_hal_uart_ex.c ****         {
 1258              		.loc 1 623 29 view .LVU342
 1259 0158 4B46     		mov	r3, r9
 1260 015a C01A     		subs	r0, r0, r3
 623:Drivers/STM32L0xx_HAL_Driver/Src/stm32l0xx_hal_uart_ex.c ****         {
 1261              		.loc 1 623 12 view .LVU343
 1262 015c B042     		cmp	r0, r6
 1263 015e 01D8     		bhi	.L55
 1264              	.LVL86:
 623:Drivers/STM32L0xx_HAL_Driver/Src/stm32l0xx_hal_uart_ex.c ****         {
 1265              		.loc 1 623 53 discriminator 1 view .LVU344
 1266 0160 002E     		cmp	r6, #0
 1267 0162 DCD1     		bne	.L49
 1268              	.L55:
 625:Drivers/STM32L0xx_HAL_Driver/Src/stm32l0xx_hal_uart_ex.c **** 
 1269              		.loc 1 625 11 is_stmt 1 view .LVU345
 625:Drivers/STM32L0xx_HAL_Driver/Src/stm32l0xx_hal_uart_ex.c **** 
 1270              		.loc 1 625 26 is_stmt 0 view .LVU346
 1271 0164 8023     		movs	r3, #128
 1272              	.LVL87:
 625:Drivers/STM32L0xx_HAL_Driver/Src/stm32l0xx_hal_uart_ex.c **** 
 1273              		.loc 1 625 26 view .LVU347
 1274 0166 2022     		movs	r2, #32
 1275 0168 E250     		str	r2, [r4, r3]
 627:Drivers/STM32L0xx_HAL_Driver/Src/stm32l0xx_hal_uart_ex.c ****         }
 1276              		.loc 1 627 11 is_stmt 1 view .LVU348
 627:Drivers/STM32L0xx_HAL_Driver/Src/stm32l0xx_hal_uart_ex.c ****         }
 1277              		.loc 1 627 18 is_stmt 0 view .LVU349
 1278 016a 0320     		movs	r0, #3
 1279 016c 0BE0     		b	.L39
 1280              	.L70:
 633:Drivers/STM32L0xx_HAL_Driver/Src/stm32l0xx_hal_uart_ex.c ****     /* At end of Rx process, restore huart->RxState to Ready */
 1281              		.loc 1 633 5 is_stmt 1 view .LVU350
 633:Drivers/STM32L0xx_HAL_Driver/Src/stm32l0xx_hal_uart_ex.c ****     /* At end of Rx process, restore huart->RxState to Ready */
 1282              		.loc 1 633 19 is_stmt 0 view .LVU351
 1283 016e 023B     		subs	r3, r3, #2
 1284 0170 E35A     		ldrh	r3, [r4, r3]
ARM GAS  C:\Users\lzh\AppData\Local\Temp\cckGfb7j.s 			page 51


 633:Drivers/STM32L0xx_HAL_Driver/Src/stm32l0xx_hal_uart_ex.c ****     /* At end of Rx process, restore huart->RxState to Ready */
 1285              		.loc 1 633 39 view .LVU352
 1286 0172 5A32     		adds	r2, r2, #90
 1287 0174 A25A     		ldrh	r2, [r4, r2]
 633:Drivers/STM32L0xx_HAL_Driver/Src/stm32l0xx_hal_uart_ex.c ****     /* At end of Rx process, restore huart->RxState to Ready */
 1288              		.loc 1 633 32 view .LVU353
 1289 0176 9B1A     		subs	r3, r3, r2
 633:Drivers/STM32L0xx_HAL_Driver/Src/stm32l0xx_hal_uart_ex.c ****     /* At end of Rx process, restore huart->RxState to Ready */
 1290              		.loc 1 633 12 view .LVU354
 1291 0178 3B80     		strh	r3, [r7]
 635:Drivers/STM32L0xx_HAL_Driver/Src/stm32l0xx_hal_uart_ex.c **** 
 1292              		.loc 1 635 5 is_stmt 1 view .LVU355
 635:Drivers/STM32L0xx_HAL_Driver/Src/stm32l0xx_hal_uart_ex.c **** 
 1293              		.loc 1 635 20 is_stmt 0 view .LVU356
 1294 017a 8023     		movs	r3, #128
 1295 017c 2022     		movs	r2, #32
 1296 017e E250     		str	r2, [r4, r3]
 637:Drivers/STM32L0xx_HAL_Driver/Src/stm32l0xx_hal_uart_ex.c ****   }
 1297              		.loc 1 637 5 is_stmt 1 view .LVU357
 637:Drivers/STM32L0xx_HAL_Driver/Src/stm32l0xx_hal_uart_ex.c ****   }
 1298              		.loc 1 637 12 is_stmt 0 view .LVU358
 1299 0180 0020     		movs	r0, #0
 1300 0182 00E0     		b	.L39
 1301              	.LVL88:
 1302              	.L57:
 641:Drivers/STM32L0xx_HAL_Driver/Src/stm32l0xx_hal_uart_ex.c ****   }
 1303              		.loc 1 641 12 view .LVU359
 1304 0184 0220     		movs	r0, #2
 1305              	.LVL89:
 1306              	.L39:
 643:Drivers/STM32L0xx_HAL_Driver/Src/stm32l0xx_hal_uart_ex.c **** 
 1307              		.loc 1 643 1 view .LVU360
 1308 0186 02B0     		add	sp, sp, #8
 1309              		@ sp needed
 1310              	.LVL90:
 1311              	.LVL91:
 643:Drivers/STM32L0xx_HAL_Driver/Src/stm32l0xx_hal_uart_ex.c **** 
 1312              		.loc 1 643 1 view .LVU361
 1313 0188 E0BC     		pop	{r5, r6, r7}
 1314 018a BA46     		mov	r10, r7
 1315 018c B146     		mov	r9, r6
 1316 018e A846     		mov	r8, r5
 1317 0190 F0BD     		pop	{r4, r5, r6, r7, pc}
 1318              	.LVL92:
 1319              	.L58:
 538:Drivers/STM32L0xx_HAL_Driver/Src/stm32l0xx_hal_uart_ex.c ****     }
 1320              		.loc 1 538 15 view .LVU362
 1321 0192 0120     		movs	r0, #1
 1322              	.LVL93:
 538:Drivers/STM32L0xx_HAL_Driver/Src/stm32l0xx_hal_uart_ex.c ****     }
 1323              		.loc 1 538 15 view .LVU363
 1324 0194 F7E7     		b	.L39
 1325              	.LVL94:
 1326              	.L59:
 538:Drivers/STM32L0xx_HAL_Driver/Src/stm32l0xx_hal_uart_ex.c ****     }
 1327              		.loc 1 538 15 view .LVU364
 1328 0196 0120     		movs	r0, #1
ARM GAS  C:\Users\lzh\AppData\Local\Temp\cckGfb7j.s 			page 52


 1329              	.LVL95:
 538:Drivers/STM32L0xx_HAL_Driver/Src/stm32l0xx_hal_uart_ex.c ****     }
 1330              		.loc 1 538 15 view .LVU365
 1331 0198 F5E7     		b	.L39
 1332              	.LVL96:
 1333              	.L60:
 548:Drivers/STM32L0xx_HAL_Driver/Src/stm32l0xx_hal_uart_ex.c ****       }
 1334              		.loc 1 548 17 view .LVU366
 1335 019a 0120     		movs	r0, #1
 1336              	.LVL97:
 548:Drivers/STM32L0xx_HAL_Driver/Src/stm32l0xx_hal_uart_ex.c ****       }
 1337              		.loc 1 548 17 view .LVU367
 1338 019c F3E7     		b	.L39
 1339              	.L74:
 1340 019e C046     		.align	2
 1341              	.L73:
 1342 01a0 FF010000 		.word	511
 1343              		.cfi_endproc
 1344              	.LFE48:
 1346              		.section	.text.HAL_UARTEx_ReceiveToIdle_IT,"ax",%progbits
 1347              		.align	1
 1348              		.global	HAL_UARTEx_ReceiveToIdle_IT
 1349              		.syntax unified
 1350              		.code	16
 1351              		.thumb_func
 1353              	HAL_UARTEx_ReceiveToIdle_IT:
 1354              	.LVL98:
 1355              	.LFB49:
 665:Drivers/STM32L0xx_HAL_Driver/Src/stm32l0xx_hal_uart_ex.c ****   HAL_StatusTypeDef status = HAL_OK;
 1356              		.loc 1 665 1 is_stmt 1 view -0
 1357              		.cfi_startproc
 1358              		@ args = 0, pretend = 0, frame = 0
 1359              		@ frame_needed = 0, uses_anonymous_args = 0
 665:Drivers/STM32L0xx_HAL_Driver/Src/stm32l0xx_hal_uart_ex.c ****   HAL_StatusTypeDef status = HAL_OK;
 1360              		.loc 1 665 1 is_stmt 0 view .LVU369
 1361 0000 10B5     		push	{r4, lr}
 1362              		.cfi_def_cfa_offset 8
 1363              		.cfi_offset 4, -8
 1364              		.cfi_offset 14, -4
 1365 0002 0400     		movs	r4, r0
 666:Drivers/STM32L0xx_HAL_Driver/Src/stm32l0xx_hal_uart_ex.c **** 
 1366              		.loc 1 666 3 is_stmt 1 view .LVU370
 1367              	.LVL99:
 669:Drivers/STM32L0xx_HAL_Driver/Src/stm32l0xx_hal_uart_ex.c ****   {
 1368              		.loc 1 669 3 view .LVU371
 669:Drivers/STM32L0xx_HAL_Driver/Src/stm32l0xx_hal_uart_ex.c ****   {
 1369              		.loc 1 669 12 is_stmt 0 view .LVU372
 1370 0004 8023     		movs	r3, #128
 1371 0006 C358     		ldr	r3, [r0, r3]
 669:Drivers/STM32L0xx_HAL_Driver/Src/stm32l0xx_hal_uart_ex.c ****   {
 1372              		.loc 1 669 6 view .LVU373
 1373 0008 202B     		cmp	r3, #32
 1374 000a 29D1     		bne	.L79
 671:Drivers/STM32L0xx_HAL_Driver/Src/stm32l0xx_hal_uart_ex.c ****     {
 1375              		.loc 1 671 5 is_stmt 1 view .LVU374
 671:Drivers/STM32L0xx_HAL_Driver/Src/stm32l0xx_hal_uart_ex.c ****     {
 1376              		.loc 1 671 8 is_stmt 0 view .LVU375
ARM GAS  C:\Users\lzh\AppData\Local\Temp\cckGfb7j.s 			page 53


 1377 000c 0029     		cmp	r1, #0
 1378 000e 29D0     		beq	.L80
 671:Drivers/STM32L0xx_HAL_Driver/Src/stm32l0xx_hal_uart_ex.c ****     {
 1379              		.loc 1 671 25 discriminator 1 view .LVU376
 1380 0010 002A     		cmp	r2, #0
 1381 0012 29D0     		beq	.L81
 679:Drivers/STM32L0xx_HAL_Driver/Src/stm32l0xx_hal_uart_ex.c ****     {
 1382              		.loc 1 679 5 is_stmt 1 view .LVU377
 679:Drivers/STM32L0xx_HAL_Driver/Src/stm32l0xx_hal_uart_ex.c ****     {
 1383              		.loc 1 679 21 is_stmt 0 view .LVU378
 1384 0014 8068     		ldr	r0, [r0, #8]
 1385              	.LVL100:
 679:Drivers/STM32L0xx_HAL_Driver/Src/stm32l0xx_hal_uart_ex.c ****     {
 1386              		.loc 1 679 8 view .LVU379
 1387 0016 8023     		movs	r3, #128
 1388 0018 5B01     		lsls	r3, r3, #5
 1389 001a 9842     		cmp	r0, r3
 1390 001c 04D1     		bne	.L77
 679:Drivers/STM32L0xx_HAL_Driver/Src/stm32l0xx_hal_uart_ex.c ****     {
 1391              		.loc 1 679 71 discriminator 1 view .LVU380
 1392 001e 2369     		ldr	r3, [r4, #16]
 679:Drivers/STM32L0xx_HAL_Driver/Src/stm32l0xx_hal_uart_ex.c ****     {
 1393              		.loc 1 679 56 discriminator 1 view .LVU381
 1394 0020 002B     		cmp	r3, #0
 1395 0022 01D1     		bne	.L77
 681:Drivers/STM32L0xx_HAL_Driver/Src/stm32l0xx_hal_uart_ex.c ****       {
 1396              		.loc 1 681 7 is_stmt 1 view .LVU382
 681:Drivers/STM32L0xx_HAL_Driver/Src/stm32l0xx_hal_uart_ex.c ****       {
 1397              		.loc 1 681 10 is_stmt 0 view .LVU383
 1398 0024 CB07     		lsls	r3, r1, #31
 1399 0026 21D4     		bmi	.L82
 1400              	.L77:
 688:Drivers/STM32L0xx_HAL_Driver/Src/stm32l0xx_hal_uart_ex.c ****     huart->RxEventType = HAL_UART_RXEVENT_TC;
 1401              		.loc 1 688 5 is_stmt 1 view .LVU384
 688:Drivers/STM32L0xx_HAL_Driver/Src/stm32l0xx_hal_uart_ex.c ****     huart->RxEventType = HAL_UART_RXEVENT_TC;
 1402              		.loc 1 688 26 is_stmt 0 view .LVU385
 1403 0028 0123     		movs	r3, #1
 1404 002a 2366     		str	r3, [r4, #96]
 689:Drivers/STM32L0xx_HAL_Driver/Src/stm32l0xx_hal_uart_ex.c **** 
 1405              		.loc 1 689 5 is_stmt 1 view .LVU386
 689:Drivers/STM32L0xx_HAL_Driver/Src/stm32l0xx_hal_uart_ex.c **** 
 1406              		.loc 1 689 24 is_stmt 0 view .LVU387
 1407 002c 0023     		movs	r3, #0
 1408 002e 6366     		str	r3, [r4, #100]
 691:Drivers/STM32L0xx_HAL_Driver/Src/stm32l0xx_hal_uart_ex.c **** 
 1409              		.loc 1 691 5 is_stmt 1 view .LVU388
 691:Drivers/STM32L0xx_HAL_Driver/Src/stm32l0xx_hal_uart_ex.c **** 
 1410              		.loc 1 691 11 is_stmt 0 view .LVU389
 1411 0030 2000     		movs	r0, r4
 1412 0032 FFF7FEFF 		bl	UART_Start_Receive_IT
 1413              	.LVL101:
 693:Drivers/STM32L0xx_HAL_Driver/Src/stm32l0xx_hal_uart_ex.c ****     {
 1414              		.loc 1 693 5 is_stmt 1 view .LVU390
 693:Drivers/STM32L0xx_HAL_Driver/Src/stm32l0xx_hal_uart_ex.c ****     {
 1415              		.loc 1 693 14 is_stmt 0 view .LVU391
 1416 0036 236E     		ldr	r3, [r4, #96]
 693:Drivers/STM32L0xx_HAL_Driver/Src/stm32l0xx_hal_uart_ex.c ****     {
ARM GAS  C:\Users\lzh\AppData\Local\Temp\cckGfb7j.s 			page 54


 1417              		.loc 1 693 8 view .LVU392
 1418 0038 012B     		cmp	r3, #1
 1419 003a 01D0     		beq	.L84
 704:Drivers/STM32L0xx_HAL_Driver/Src/stm32l0xx_hal_uart_ex.c ****     }
 1420              		.loc 1 704 14 view .LVU393
 1421 003c 0120     		movs	r0, #1
 1422              	.LVL102:
 707:Drivers/STM32L0xx_HAL_Driver/Src/stm32l0xx_hal_uart_ex.c ****   }
 1423              		.loc 1 707 5 is_stmt 1 view .LVU394
 707:Drivers/STM32L0xx_HAL_Driver/Src/stm32l0xx_hal_uart_ex.c ****   }
 1424              		.loc 1 707 12 is_stmt 0 view .LVU395
 1425 003e 10E0     		b	.L76
 1426              	.LVL103:
 1427              	.L84:
 695:Drivers/STM32L0xx_HAL_Driver/Src/stm32l0xx_hal_uart_ex.c ****       ATOMIC_SET_BIT(huart->Instance->CR1, USART_CR1_IDLEIE);
 1428              		.loc 1 695 7 is_stmt 1 view .LVU396
 1429 0040 2368     		ldr	r3, [r4]
 1430 0042 1021     		movs	r1, #16
 1431 0044 1962     		str	r1, [r3, #32]
 696:Drivers/STM32L0xx_HAL_Driver/Src/stm32l0xx_hal_uart_ex.c ****     }
 1432              		.loc 1 696 7 view .LVU397
 1433              	.LBB72:
 696:Drivers/STM32L0xx_HAL_Driver/Src/stm32l0xx_hal_uart_ex.c ****     }
 1434              		.loc 1 696 7 view .LVU398
 696:Drivers/STM32L0xx_HAL_Driver/Src/stm32l0xx_hal_uart_ex.c ****     }
 1435              		.loc 1 696 7 view .LVU399
 1436              	.LBB73:
 1437              	.LBI73:
 382:Drivers/CMSIS/Include/cmsis_gcc.h **** {
 1438              		.loc 2 382 31 view .LVU400
 1439              	.LBB74:
 384:Drivers/CMSIS/Include/cmsis_gcc.h **** 
 1440              		.loc 2 384 3 view .LVU401
 386:Drivers/CMSIS/Include/cmsis_gcc.h ****   return(result);
 1441              		.loc 2 386 3 view .LVU402
 1442              		.syntax divided
 1443              	@ 386 "Drivers/CMSIS/Include/cmsis_gcc.h" 1
 1444 0046 EFF31080 		MRS r0, primask
 1445              	@ 0 "" 2
 1446              	.LVL104:
 387:Drivers/CMSIS/Include/cmsis_gcc.h **** }
 1447              		.loc 2 387 3 view .LVU403
 387:Drivers/CMSIS/Include/cmsis_gcc.h **** }
 1448              		.loc 2 387 3 is_stmt 0 view .LVU404
 1449              		.thumb
 1450              		.syntax unified
 1451              	.LBE74:
 1452              	.LBE73:
 696:Drivers/STM32L0xx_HAL_Driver/Src/stm32l0xx_hal_uart_ex.c ****     }
 1453              		.loc 1 696 7 is_stmt 1 view .LVU405
 1454              	.LBB75:
 1455              	.LBI75:
 412:Drivers/CMSIS/Include/cmsis_gcc.h **** {
 1456              		.loc 2 412 27 view .LVU406
 1457              	.LBB76:
 1458              		.loc 2 414 3 view .LVU407
 1459 004a 0123     		movs	r3, #1
ARM GAS  C:\Users\lzh\AppData\Local\Temp\cckGfb7j.s 			page 55


 1460              		.syntax divided
 1461              	@ 414 "Drivers/CMSIS/Include/cmsis_gcc.h" 1
 1462 004c 83F31088 		MSR primask, r3
 1463              	@ 0 "" 2
 1464              	.LVL105:
 1465              		.loc 2 414 3 is_stmt 0 view .LVU408
 1466              		.thumb
 1467              		.syntax unified
 1468              	.LBE76:
 1469              	.LBE75:
 696:Drivers/STM32L0xx_HAL_Driver/Src/stm32l0xx_hal_uart_ex.c ****     }
 1470              		.loc 1 696 7 is_stmt 1 view .LVU409
 1471 0050 2268     		ldr	r2, [r4]
 1472 0052 1368     		ldr	r3, [r2]
 1473 0054 0B43     		orrs	r3, r1
 1474 0056 1360     		str	r3, [r2]
 696:Drivers/STM32L0xx_HAL_Driver/Src/stm32l0xx_hal_uart_ex.c ****     }
 1475              		.loc 1 696 7 view .LVU410
 1476              	.LVL106:
 1477              	.LBB77:
 1478              	.LBI77:
 412:Drivers/CMSIS/Include/cmsis_gcc.h **** {
 1479              		.loc 2 412 27 view .LVU411
 1480              	.LBB78:
 1481              		.loc 2 414 3 view .LVU412
 1482              		.syntax divided
 1483              	@ 414 "Drivers/CMSIS/Include/cmsis_gcc.h" 1
 1484 0058 80F31088 		MSR primask, r0
 1485              	@ 0 "" 2
 1486              		.thumb
 1487              		.syntax unified
 1488              	.LBE78:
 1489              	.LBE77:
 1490              	.LBE72:
 666:Drivers/STM32L0xx_HAL_Driver/Src/stm32l0xx_hal_uart_ex.c **** 
 1491              		.loc 1 666 21 is_stmt 0 view .LVU413
 1492 005c 0020     		movs	r0, #0
 1493              	.LVL107:
 1494              	.LBB81:
 1495              	.LBB80:
 1496              	.LBB79:
 415:Drivers/CMSIS/Include/cmsis_gcc.h **** }
 1497              		.loc 2 415 1 view .LVU414
 1498 005e 00E0     		b	.L76
 1499              	.LVL108:
 1500              	.L79:
 1501              		.loc 2 415 1 view .LVU415
 1502              	.LBE79:
 1503              	.LBE80:
 1504              	.LBE81:
 711:Drivers/STM32L0xx_HAL_Driver/Src/stm32l0xx_hal_uart_ex.c ****   }
 1505              		.loc 1 711 12 view .LVU416
 1506 0060 0220     		movs	r0, #2
 1507              	.LVL109:
 1508              	.L76:
 713:Drivers/STM32L0xx_HAL_Driver/Src/stm32l0xx_hal_uart_ex.c **** 
 1509              		.loc 1 713 1 view .LVU417
ARM GAS  C:\Users\lzh\AppData\Local\Temp\cckGfb7j.s 			page 56


 1510              		@ sp needed
 1511              	.LVL110:
 713:Drivers/STM32L0xx_HAL_Driver/Src/stm32l0xx_hal_uart_ex.c **** 
 1512              		.loc 1 713 1 view .LVU418
 1513 0062 10BD     		pop	{r4, pc}
 1514              	.LVL111:
 1515              	.L80:
 673:Drivers/STM32L0xx_HAL_Driver/Src/stm32l0xx_hal_uart_ex.c ****     }
 1516              		.loc 1 673 14 view .LVU419
 1517 0064 0120     		movs	r0, #1
 1518              	.LVL112:
 673:Drivers/STM32L0xx_HAL_Driver/Src/stm32l0xx_hal_uart_ex.c ****     }
 1519              		.loc 1 673 14 view .LVU420
 1520 0066 FCE7     		b	.L76
 1521              	.LVL113:
 1522              	.L81:
 673:Drivers/STM32L0xx_HAL_Driver/Src/stm32l0xx_hal_uart_ex.c ****     }
 1523              		.loc 1 673 14 view .LVU421
 1524 0068 0120     		movs	r0, #1
 1525              	.LVL114:
 673:Drivers/STM32L0xx_HAL_Driver/Src/stm32l0xx_hal_uart_ex.c ****     }
 1526              		.loc 1 673 14 view .LVU422
 1527 006a FAE7     		b	.L76
 1528              	.L82:
 683:Drivers/STM32L0xx_HAL_Driver/Src/stm32l0xx_hal_uart_ex.c ****       }
 1529              		.loc 1 683 17 view .LVU423
 1530 006c 0120     		movs	r0, #1
 1531 006e F8E7     		b	.L76
 1532              		.cfi_endproc
 1533              	.LFE49:
 1535              		.section	.text.HAL_UARTEx_ReceiveToIdle_DMA,"ax",%progbits
 1536              		.align	1
 1537              		.global	HAL_UARTEx_ReceiveToIdle_DMA
 1538              		.syntax unified
 1539              		.code	16
 1540              		.thumb_func
 1542              	HAL_UARTEx_ReceiveToIdle_DMA:
 1543              	.LVL115:
 1544              	.LFB50:
 738:Drivers/STM32L0xx_HAL_Driver/Src/stm32l0xx_hal_uart_ex.c ****   HAL_StatusTypeDef status;
 1545              		.loc 1 738 1 is_stmt 1 view -0
 1546              		.cfi_startproc
 1547              		@ args = 0, pretend = 0, frame = 0
 1548              		@ frame_needed = 0, uses_anonymous_args = 0
 738:Drivers/STM32L0xx_HAL_Driver/Src/stm32l0xx_hal_uart_ex.c ****   HAL_StatusTypeDef status;
 1549              		.loc 1 738 1 is_stmt 0 view .LVU425
 1550 0000 10B5     		push	{r4, lr}
 1551              		.cfi_def_cfa_offset 8
 1552              		.cfi_offset 4, -8
 1553              		.cfi_offset 14, -4
 1554 0002 0400     		movs	r4, r0
 739:Drivers/STM32L0xx_HAL_Driver/Src/stm32l0xx_hal_uart_ex.c **** 
 1555              		.loc 1 739 3 is_stmt 1 view .LVU426
 742:Drivers/STM32L0xx_HAL_Driver/Src/stm32l0xx_hal_uart_ex.c ****   {
 1556              		.loc 1 742 3 view .LVU427
 742:Drivers/STM32L0xx_HAL_Driver/Src/stm32l0xx_hal_uart_ex.c ****   {
 1557              		.loc 1 742 12 is_stmt 0 view .LVU428
ARM GAS  C:\Users\lzh\AppData\Local\Temp\cckGfb7j.s 			page 57


 1558 0004 8023     		movs	r3, #128
 1559 0006 C358     		ldr	r3, [r0, r3]
 742:Drivers/STM32L0xx_HAL_Driver/Src/stm32l0xx_hal_uart_ex.c ****   {
 1560              		.loc 1 742 6 view .LVU429
 1561 0008 202B     		cmp	r3, #32
 1562 000a 2AD1     		bne	.L89
 744:Drivers/STM32L0xx_HAL_Driver/Src/stm32l0xx_hal_uart_ex.c ****     {
 1563              		.loc 1 744 5 is_stmt 1 view .LVU430
 744:Drivers/STM32L0xx_HAL_Driver/Src/stm32l0xx_hal_uart_ex.c ****     {
 1564              		.loc 1 744 8 is_stmt 0 view .LVU431
 1565 000c 0029     		cmp	r1, #0
 1566 000e 2AD0     		beq	.L90
 744:Drivers/STM32L0xx_HAL_Driver/Src/stm32l0xx_hal_uart_ex.c ****     {
 1567              		.loc 1 744 25 discriminator 1 view .LVU432
 1568 0010 002A     		cmp	r2, #0
 1569 0012 2AD0     		beq	.L91
 752:Drivers/STM32L0xx_HAL_Driver/Src/stm32l0xx_hal_uart_ex.c ****     {
 1570              		.loc 1 752 5 is_stmt 1 view .LVU433
 752:Drivers/STM32L0xx_HAL_Driver/Src/stm32l0xx_hal_uart_ex.c ****     {
 1571              		.loc 1 752 21 is_stmt 0 view .LVU434
 1572 0014 8068     		ldr	r0, [r0, #8]
 1573              	.LVL116:
 752:Drivers/STM32L0xx_HAL_Driver/Src/stm32l0xx_hal_uart_ex.c ****     {
 1574              		.loc 1 752 8 view .LVU435
 1575 0016 8023     		movs	r3, #128
 1576 0018 5B01     		lsls	r3, r3, #5
 1577 001a 9842     		cmp	r0, r3
 1578 001c 04D1     		bne	.L87
 752:Drivers/STM32L0xx_HAL_Driver/Src/stm32l0xx_hal_uart_ex.c ****     {
 1579              		.loc 1 752 71 discriminator 1 view .LVU436
 1580 001e 2369     		ldr	r3, [r4, #16]
 752:Drivers/STM32L0xx_HAL_Driver/Src/stm32l0xx_hal_uart_ex.c ****     {
 1581              		.loc 1 752 56 discriminator 1 view .LVU437
 1582 0020 002B     		cmp	r3, #0
 1583 0022 01D1     		bne	.L87
 754:Drivers/STM32L0xx_HAL_Driver/Src/stm32l0xx_hal_uart_ex.c ****       {
 1584              		.loc 1 754 7 is_stmt 1 view .LVU438
 754:Drivers/STM32L0xx_HAL_Driver/Src/stm32l0xx_hal_uart_ex.c ****       {
 1585              		.loc 1 754 10 is_stmt 0 view .LVU439
 1586 0024 CB07     		lsls	r3, r1, #31
 1587 0026 22D4     		bmi	.L92
 1588              	.L87:
 761:Drivers/STM32L0xx_HAL_Driver/Src/stm32l0xx_hal_uart_ex.c ****     huart->RxEventType = HAL_UART_RXEVENT_TC;
 1589              		.loc 1 761 5 is_stmt 1 view .LVU440
 761:Drivers/STM32L0xx_HAL_Driver/Src/stm32l0xx_hal_uart_ex.c ****     huart->RxEventType = HAL_UART_RXEVENT_TC;
 1590              		.loc 1 761 26 is_stmt 0 view .LVU441
 1591 0028 0123     		movs	r3, #1
 1592 002a 2366     		str	r3, [r4, #96]
 762:Drivers/STM32L0xx_HAL_Driver/Src/stm32l0xx_hal_uart_ex.c **** 
 1593              		.loc 1 762 5 is_stmt 1 view .LVU442
 762:Drivers/STM32L0xx_HAL_Driver/Src/stm32l0xx_hal_uart_ex.c **** 
 1594              		.loc 1 762 24 is_stmt 0 view .LVU443
 1595 002c 0023     		movs	r3, #0
 1596 002e 6366     		str	r3, [r4, #100]
 764:Drivers/STM32L0xx_HAL_Driver/Src/stm32l0xx_hal_uart_ex.c **** 
 1597              		.loc 1 764 5 is_stmt 1 view .LVU444
 764:Drivers/STM32L0xx_HAL_Driver/Src/stm32l0xx_hal_uart_ex.c **** 
ARM GAS  C:\Users\lzh\AppData\Local\Temp\cckGfb7j.s 			page 58


 1598              		.loc 1 764 15 is_stmt 0 view .LVU445
 1599 0030 2000     		movs	r0, r4
 1600 0032 FFF7FEFF 		bl	UART_Start_Receive_DMA
 1601              	.LVL117:
 767:Drivers/STM32L0xx_HAL_Driver/Src/stm32l0xx_hal_uart_ex.c ****     {
 1602              		.loc 1 767 5 is_stmt 1 view .LVU446
 767:Drivers/STM32L0xx_HAL_Driver/Src/stm32l0xx_hal_uart_ex.c ****     {
 1603              		.loc 1 767 8 is_stmt 0 view .LVU447
 1604 0036 0028     		cmp	r0, #0
 1605 0038 14D1     		bne	.L86
 769:Drivers/STM32L0xx_HAL_Driver/Src/stm32l0xx_hal_uart_ex.c ****       {
 1606              		.loc 1 769 7 is_stmt 1 view .LVU448
 769:Drivers/STM32L0xx_HAL_Driver/Src/stm32l0xx_hal_uart_ex.c ****       {
 1607              		.loc 1 769 16 is_stmt 0 view .LVU449
 1608 003a 236E     		ldr	r3, [r4, #96]
 769:Drivers/STM32L0xx_HAL_Driver/Src/stm32l0xx_hal_uart_ex.c ****       {
 1609              		.loc 1 769 10 view .LVU450
 1610 003c 012B     		cmp	r3, #1
 1611 003e 01D0     		beq	.L94
 780:Drivers/STM32L0xx_HAL_Driver/Src/stm32l0xx_hal_uart_ex.c ****       }
 1612              		.loc 1 780 16 view .LVU451
 1613 0040 0120     		movs	r0, #1
 1614              	.LVL118:
 784:Drivers/STM32L0xx_HAL_Driver/Src/stm32l0xx_hal_uart_ex.c ****   }
 1615              		.loc 1 784 5 is_stmt 1 view .LVU452
 784:Drivers/STM32L0xx_HAL_Driver/Src/stm32l0xx_hal_uart_ex.c ****   }
 1616              		.loc 1 784 12 is_stmt 0 view .LVU453
 1617 0042 0FE0     		b	.L86
 1618              	.LVL119:
 1619              	.L94:
 771:Drivers/STM32L0xx_HAL_Driver/Src/stm32l0xx_hal_uart_ex.c ****         ATOMIC_SET_BIT(huart->Instance->CR1, USART_CR1_IDLEIE);
 1620              		.loc 1 771 9 is_stmt 1 view .LVU454
 1621 0044 2368     		ldr	r3, [r4]
 1622 0046 1021     		movs	r1, #16
 1623 0048 1962     		str	r1, [r3, #32]
 772:Drivers/STM32L0xx_HAL_Driver/Src/stm32l0xx_hal_uart_ex.c ****       }
 1624              		.loc 1 772 9 view .LVU455
 1625              	.LBB82:
 772:Drivers/STM32L0xx_HAL_Driver/Src/stm32l0xx_hal_uart_ex.c ****       }
 1626              		.loc 1 772 9 view .LVU456
 772:Drivers/STM32L0xx_HAL_Driver/Src/stm32l0xx_hal_uart_ex.c ****       }
 1627              		.loc 1 772 9 view .LVU457
 1628              	.LBB83:
 1629              	.LBI83:
 382:Drivers/CMSIS/Include/cmsis_gcc.h **** {
 1630              		.loc 2 382 31 view .LVU458
 1631              	.LBB84:
 384:Drivers/CMSIS/Include/cmsis_gcc.h **** 
 1632              		.loc 2 384 3 view .LVU459
 386:Drivers/CMSIS/Include/cmsis_gcc.h ****   return(result);
 1633              		.loc 2 386 3 view .LVU460
 1634              		.syntax divided
 1635              	@ 386 "Drivers/CMSIS/Include/cmsis_gcc.h" 1
 1636 004a EFF3108C 		MRS ip, primask
 1637              	@ 0 "" 2
 1638              	.LVL120:
 387:Drivers/CMSIS/Include/cmsis_gcc.h **** }
ARM GAS  C:\Users\lzh\AppData\Local\Temp\cckGfb7j.s 			page 59


 1639              		.loc 2 387 3 view .LVU461
 387:Drivers/CMSIS/Include/cmsis_gcc.h **** }
 1640              		.loc 2 387 3 is_stmt 0 view .LVU462
 1641              		.thumb
 1642              		.syntax unified
 1643              	.LBE84:
 1644              	.LBE83:
 772:Drivers/STM32L0xx_HAL_Driver/Src/stm32l0xx_hal_uart_ex.c ****       }
 1645              		.loc 1 772 9 is_stmt 1 view .LVU463
 1646              	.LBB85:
 1647              	.LBI85:
 412:Drivers/CMSIS/Include/cmsis_gcc.h **** {
 1648              		.loc 2 412 27 view .LVU464
 1649              	.LBB86:
 414:Drivers/CMSIS/Include/cmsis_gcc.h **** }
 1650              		.loc 2 414 3 view .LVU465
 1651 004e 0123     		movs	r3, #1
 1652              		.syntax divided
 1653              	@ 414 "Drivers/CMSIS/Include/cmsis_gcc.h" 1
 1654 0050 83F31088 		MSR primask, r3
 1655              	@ 0 "" 2
 1656              	.LVL121:
 414:Drivers/CMSIS/Include/cmsis_gcc.h **** }
 1657              		.loc 2 414 3 is_stmt 0 view .LVU466
 1658              		.thumb
 1659              		.syntax unified
 1660              	.LBE86:
 1661              	.LBE85:
 772:Drivers/STM32L0xx_HAL_Driver/Src/stm32l0xx_hal_uart_ex.c ****       }
 1662              		.loc 1 772 9 is_stmt 1 view .LVU467
 1663 0054 2268     		ldr	r2, [r4]
 1664 0056 1368     		ldr	r3, [r2]
 1665 0058 0B43     		orrs	r3, r1
 1666 005a 1360     		str	r3, [r2]
 772:Drivers/STM32L0xx_HAL_Driver/Src/stm32l0xx_hal_uart_ex.c ****       }
 1667              		.loc 1 772 9 view .LVU468
 1668              	.LVL122:
 1669              	.LBB87:
 1670              	.LBI87:
 412:Drivers/CMSIS/Include/cmsis_gcc.h **** {
 1671              		.loc 2 412 27 view .LVU469
 1672              	.LBB88:
 414:Drivers/CMSIS/Include/cmsis_gcc.h **** }
 1673              		.loc 2 414 3 view .LVU470
 1674              		.syntax divided
 1675              	@ 414 "Drivers/CMSIS/Include/cmsis_gcc.h" 1
 1676 005c 8CF31088 		MSR primask, ip
 1677              	@ 0 "" 2
 1678              		.loc 2 415 1 is_stmt 0 view .LVU471
 1679              		.thumb
 1680              		.syntax unified
 1681 0060 00E0     		b	.L86
 1682              	.LVL123:
 1683              	.L89:
 1684              		.loc 2 415 1 view .LVU472
 1685              	.LBE88:
 1686              	.LBE87:
ARM GAS  C:\Users\lzh\AppData\Local\Temp\cckGfb7j.s 			page 60


 1687              	.LBE82:
 788:Drivers/STM32L0xx_HAL_Driver/Src/stm32l0xx_hal_uart_ex.c ****   }
 1688              		.loc 1 788 12 view .LVU473
 1689 0062 0220     		movs	r0, #2
 1690              	.LVL124:
 1691              	.L86:
 790:Drivers/STM32L0xx_HAL_Driver/Src/stm32l0xx_hal_uart_ex.c **** 
 1692              		.loc 1 790 1 view .LVU474
 1693              		@ sp needed
 1694              	.LVL125:
 790:Drivers/STM32L0xx_HAL_Driver/Src/stm32l0xx_hal_uart_ex.c **** 
 1695              		.loc 1 790 1 view .LVU475
 1696 0064 10BD     		pop	{r4, pc}
 1697              	.LVL126:
 1698              	.L90:
 746:Drivers/STM32L0xx_HAL_Driver/Src/stm32l0xx_hal_uart_ex.c ****     }
 1699              		.loc 1 746 14 view .LVU476
 1700 0066 0120     		movs	r0, #1
 1701              	.LVL127:
 746:Drivers/STM32L0xx_HAL_Driver/Src/stm32l0xx_hal_uart_ex.c ****     }
 1702              		.loc 1 746 14 view .LVU477
 1703 0068 FCE7     		b	.L86
 1704              	.LVL128:
 1705              	.L91:
 746:Drivers/STM32L0xx_HAL_Driver/Src/stm32l0xx_hal_uart_ex.c ****     }
 1706              		.loc 1 746 14 view .LVU478
 1707 006a 0120     		movs	r0, #1
 1708              	.LVL129:
 746:Drivers/STM32L0xx_HAL_Driver/Src/stm32l0xx_hal_uart_ex.c ****     }
 1709              		.loc 1 746 14 view .LVU479
 1710 006c FAE7     		b	.L86
 1711              	.L92:
 756:Drivers/STM32L0xx_HAL_Driver/Src/stm32l0xx_hal_uart_ex.c ****       }
 1712              		.loc 1 756 17 view .LVU480
 1713 006e 0120     		movs	r0, #1
 1714 0070 F8E7     		b	.L86
 1715              		.cfi_endproc
 1716              	.LFE50:
 1718              		.section	.text.HAL_UARTEx_GetRxEventType,"ax",%progbits
 1719              		.align	1
 1720              		.global	HAL_UARTEx_GetRxEventType
 1721              		.syntax unified
 1722              		.code	16
 1723              		.thumb_func
 1725              	HAL_UARTEx_GetRxEventType:
 1726              	.LVL130:
 1727              	.LFB51:
 815:Drivers/STM32L0xx_HAL_Driver/Src/stm32l0xx_hal_uart_ex.c ****   /* Return Rx Event type value, as stored in UART handle */
 1728              		.loc 1 815 1 is_stmt 1 view -0
 1729              		.cfi_startproc
 1730              		@ args = 0, pretend = 0, frame = 0
 1731              		@ frame_needed = 0, uses_anonymous_args = 0
 1732              		@ link register save eliminated.
 817:Drivers/STM32L0xx_HAL_Driver/Src/stm32l0xx_hal_uart_ex.c **** }
 1733              		.loc 1 817 3 view .LVU482
 817:Drivers/STM32L0xx_HAL_Driver/Src/stm32l0xx_hal_uart_ex.c **** }
 1734              		.loc 1 817 16 is_stmt 0 view .LVU483
ARM GAS  C:\Users\lzh\AppData\Local\Temp\cckGfb7j.s 			page 61


 1735 0000 406E     		ldr	r0, [r0, #100]
 1736              	.LVL131:
 818:Drivers/STM32L0xx_HAL_Driver/Src/stm32l0xx_hal_uart_ex.c **** 
 1737              		.loc 1 818 1 view .LVU484
 1738              		@ sp needed
 1739 0002 7047     		bx	lr
 1740              		.cfi_endproc
 1741              	.LFE51:
 1743              		.text
 1744              	.Letext0:
 1745              		.file 3 "c:\\users\\lzh\\appdata\\roaming\\code\\user\\globalstorage\\bmd.stm32-for-vscode\\@xpack
 1746              		.file 4 "c:\\users\\lzh\\appdata\\roaming\\code\\user\\globalstorage\\bmd.stm32-for-vscode\\@xpack
 1747              		.file 5 "Drivers/CMSIS/Device/ST/STM32L0xx/Include/stm32l031xx.h"
 1748              		.file 6 "Drivers/CMSIS/Device/ST/STM32L0xx/Include/stm32l0xx.h"
 1749              		.file 7 "Drivers/STM32L0xx_HAL_Driver/Inc/stm32l0xx_hal_def.h"
 1750              		.file 8 "Drivers/STM32L0xx_HAL_Driver/Inc/stm32l0xx_hal_dma.h"
 1751              		.file 9 "Drivers/STM32L0xx_HAL_Driver/Inc/stm32l0xx_hal_uart.h"
 1752              		.file 10 "Drivers/STM32L0xx_HAL_Driver/Inc/stm32l0xx_hal_uart_ex.h"
 1753              		.file 11 "Drivers/STM32L0xx_HAL_Driver/Inc/stm32l0xx_hal.h"
ARM GAS  C:\Users\lzh\AppData\Local\Temp\cckGfb7j.s 			page 62

